Archive member included because of file (symbol)

c:/program files (x86)/microchip/mplab c32 suite/bin/../lib/gcc/pic32mx/4.5.1\libgcc.a(_udivdi3.o)
                              build/default/production/_ext/1954962658/Tick.o (__udivdi3)
c:/program files (x86)/microchip/mplab c32 suite/bin/../lib/gcc/pic32mx/4.5.1/../../../../pic32mx/lib\libc.a(memcmp.o)
                              build/default/production/_ext/1954962658/ARP.o (memcmp)
c:/program files (x86)/microchip/mplab c32 suite/bin/../lib/gcc/pic32mx/4.5.1/../../../../pic32mx/lib\libc.a(memcpy.o)
                              build/default/production/_ext/1954962658/ARP.o (memcpy)
c:/program files (x86)/microchip/mplab c32 suite/bin/../lib/gcc/pic32mx/4.5.1/../../../../pic32mx/lib\libc.a(memset.o)
                              build/default/production/_ext/1954962658/DHCP.o (memset)
c:/program files (x86)/microchip/mplab c32 suite/bin/../lib/gcc/pic32mx/4.5.1/../../../../pic32mx/lib\libc.a(strcmp.o)
                              build/default/production/_ext/1954962658/HTTP2.o (strcmp)
c:/program files (x86)/microchip/mplab c32 suite/bin/../lib/gcc/pic32mx/4.5.1/../../../../pic32mx/lib\libc.a(strlen.o)
                              build/default/production/_ext/1954962658/HTTP2.o (strlen)
c:/program files (x86)/microchip/mplab c32 suite/bin/../lib/gcc/pic32mx/4.5.1/../../../../pic32mx/lib\libc.a(general-exception.o)
                              c:/program files (x86)/microchip/mplab c32 suite/bin/../lib/gcc/pic32mx/4.5.1/../../../../pic32mx/lib/crt0.o (_general_exception_context)
c:/program files (x86)/microchip/mplab c32 suite/bin/../lib/gcc/pic32mx/4.5.1/../../../../pic32mx/lib\libc.a(_iob.o)
                              build/default/production/_ext/1954962658/ARP.o (_iob)
c:/program files (x86)/microchip/mplab c32 suite/bin/../lib/gcc/pic32mx/4.5.1/../../../../pic32mx/lib\libc.a(fwrite.o)
                              build/default/production/_ext/1954962658/ARP.o (fwrite)
c:/program files (x86)/microchip/mplab c32 suite/bin/../lib/gcc/pic32mx/4.5.1/../../../../pic32mx/lib\libc.a(atol.o)
                              build/default/production/_ext/1954962658/HTTP2.o (atol)
c:/program files (x86)/microchip/mplab c32 suite/bin/../lib/gcc/pic32mx/4.5.1/../../../../pic32mx/lib\libc.a(ctype.o)
                              build/default/production/_ext/243675038/WFConsoleMsgs.o (_ctype)
c:/program files (x86)/microchip/mplab c32 suite/bin/../lib/gcc/pic32mx/4.5.1/../../../../pic32mx/lib\libc.a(puts.o)
                              build/default/production/_ext/1954962658/ZeroconfMulticastDNS.o (fputs)
c:/program files (x86)/microchip/mplab c32 suite/bin/../lib/gcc/pic32mx/4.5.1/../../../../pic32mx/lib\libc.a(printf_cdnopsuxX.eo)
                              (_printf_cdnopsuxX)
c:/program files (x86)/microchip/mplab c32 suite/bin/../lib/gcc/pic32mx/4.5.1/../../../../pic32mx/lib\libc.a(printf_cdnopuxX.eo)
                              build/default/production/_ext/1954962658/ZeroconfLinkLocal.o (_printf_cdnopuxX)
c:/program files (x86)/microchip/mplab c32 suite/bin/../lib/gcc/pic32mx/4.5.1/../../../../pic32mx/lib\libc.a(printf_s.eo)
                              build/default/production/_ext/1472/CustomHTTPApp.o (_printf_s)
c:/program files (x86)/microchip/mplab c32 suite/bin/../lib/gcc/pic32mx/4.5.1/../../../../pic32mx/lib\libc.a(sprintf_cdnopsuxX.eo)
                              build/default/production/_ext/1472/WF_Config.o (_sprintf_cdnopsuxX)
c:/program files (x86)/microchip/mplab c32 suite/bin/../lib/gcc/pic32mx/4.5.1/../../../../pic32mx/lib\libc.a(sprintf_cdnopuxX.eo)
                              build/default/production/_ext/1954962658/ZeroconfMulticastDNS.o (_sprintf_cdnopuxX)
c:/program files (x86)/microchip/mplab c32 suite/bin/../lib/gcc/pic32mx/4.5.1/../../../../pic32mx/lib\libc.a(default-bootstrap-exception-handler.o)
                              c:/program files (x86)/microchip/mplab c32 suite/bin/../lib/gcc/pic32mx/4.5.1/../../../../pic32mx/lib/crt0.o (_bootstrap_exception_handler)
c:/program files (x86)/microchip/mplab c32 suite/bin/../lib/gcc/pic32mx/4.5.1/../../../../pic32mx/lib\libc.a(default-on-reset.o)
                              c:/program files (x86)/microchip/mplab c32 suite/bin/../lib/gcc/pic32mx/4.5.1/../../../../pic32mx/lib/crt0.o (_on_reset)
c:/program files (x86)/microchip/mplab c32 suite/bin/../lib/gcc/pic32mx/4.5.1/../../../../pic32mx/lib\libc.a(default-on-bootstrap.o)
                              c:/program files (x86)/microchip/mplab c32 suite/bin/../lib/gcc/pic32mx/4.5.1/../../../../pic32mx/lib/crt0.o (_on_bootstrap)
c:/program files (x86)/microchip/mplab c32 suite/bin/../lib/gcc/pic32mx/4.5.1/../../../../pic32mx/lib\libc.a(default-nmi-handler.o)
                              c:/program files (x86)/microchip/mplab c32 suite/bin/../lib/gcc/pic32mx/4.5.1/../../../../pic32mx/lib/crt0.o (_nmi_handler)
c:/program files (x86)/microchip/mplab c32 suite/bin/../lib/gcc/pic32mx/4.5.1/../../../../pic32mx/lib\libc.a(fflush.o)
                              c:/program files (x86)/microchip/mplab c32 suite/bin/../lib/gcc/pic32mx/4.5.1/../../../../pic32mx/lib\libc.a(fwrite.o) (fflush)
c:/program files (x86)/microchip/mplab c32 suite/bin/../lib/gcc/pic32mx/4.5.1/../../../../pic32mx/lib\libc.a(_fputc_simple.o)
                              c:/program files (x86)/microchip/mplab c32 suite/bin/../lib/gcc/pic32mx/4.5.1/../../../../pic32mx/lib\libc.a(fwrite.o) (fputc)
c:/program files (x86)/microchip/mplab c32 suite/bin/../lib/gcc/pic32mx/4.5.1/../../../../pic32mx/lib\libc.a(fseek.o)
                              c:/program files (x86)/microchip/mplab c32 suite/bin/../lib/gcc/pic32mx/4.5.1/../../../../pic32mx/lib\libc.a(fwrite.o) (fseek)
c:/program files (x86)/microchip/mplab c32 suite/bin/../lib/gcc/pic32mx/4.5.1/../../../../pic32mx/lib\libc.a(doprnt_cdnopsuxX.eo)
                              c:/program files (x86)/microchip/mplab c32 suite/bin/../lib/gcc/pic32mx/4.5.1/../../../../pic32mx/lib\libc.a(printf_cdnopsuxX.eo) (_vfprintf_cdnopsuxX)
c:/program files (x86)/microchip/mplab c32 suite/bin/../lib/gcc/pic32mx/4.5.1/../../../../pic32mx/lib\libc.a(doprnt_cdnopuxX.eo)
                              c:/program files (x86)/microchip/mplab c32 suite/bin/../lib/gcc/pic32mx/4.5.1/../../../../pic32mx/lib\libc.a(printf_cdnopuxX.eo) (_vfprintf_cdnopuxX)
c:/program files (x86)/microchip/mplab c32 suite/bin/../lib/gcc/pic32mx/4.5.1/../../../../pic32mx/lib\libc.a(doprnt_s.eo)
                              c:/program files (x86)/microchip/mplab c32 suite/bin/../lib/gcc/pic32mx/4.5.1/../../../../pic32mx/lib\libc.a(printf_s.eo) (_vfprintf_s)
c:/program files (x86)/microchip/mplab c32 suite/bin/../lib/gcc/pic32mx/4.5.1/../../../../pic32mx/lib\libc.a(write.o)
                              c:/program files (x86)/microchip/mplab c32 suite/bin/../lib/gcc/pic32mx/4.5.1/../../../../pic32mx/lib\libc.a(fflush.o) (write)
c:/program files (x86)/microchip/mplab c32 suite/bin/../lib/gcc/pic32mx/4.5.1/../../../../pic32mx/lib\libc.a(lseek.o)
                              c:/program files (x86)/microchip/mplab c32 suite/bin/../lib/gcc/pic32mx/4.5.1/../../../../pic32mx/lib\libc.a(fseek.o) (lseek)
c:/program files (x86)/microchip/mplab c32 suite/bin/../lib/gcc/pic32mx/4.5.1/../../../../pic32mx/lib\libc.a(_flsbuf_simple.o)
                              c:/program files (x86)/microchip/mplab c32 suite/bin/../lib/gcc/pic32mx/4.5.1/../../../../pic32mx/lib\libc.a(_fputc_simple.o) (_flsbuf)
c:/program files (x86)/microchip/mplab c32 suite/bin/../lib/gcc/pic32mx/4.5.1/../../../../pic32mx/lib\libmchp_peripheral_32MX695F512H.a(soft_reset_lib.o)
                              build/default/production/_ext/1954962658/Reboot.o (SoftReset)
c:/program files (x86)/microchip/mplab c32 suite/bin/../lib/gcc/pic32mx/4.5.1/../../../../pic32mx/lib\libmchp_peripheral_32MX695F512H.a(pcache.o)
                              build/default/production/_ext/1472/MainDemo.o (CheKseg0CacheOn)
c:/program files (x86)/microchip/mplab c32 suite/bin/../lib/gcc/pic32mx/4.5.1/../../../../pic32mx/lib\libmchp_peripheral_32MX695F512H.a(int_disable_interrupts_lib.o)
                              build/default/production/_ext/1472/MainDemo.o (INTDisableInterrupts)
c:/program files (x86)/microchip/mplab c32 suite/bin/../lib/gcc/pic32mx/4.5.1/../../../../pic32mx/lib\libmchp_peripheral_32MX695F512H.a(int_restore_interrupts_lib.o)
                              build/default/production/_ext/1472/MainDemo.o (INTRestoreInterrupts)
c:/program files (x86)/microchip/mplab c32 suite/bin/../lib/gcc/pic32mx/4.5.1/../../../../pic32mx/lib\libmchp_peripheral_32MX695F512H.a(int_enable_mv_int_lib.o)
                              build/default/production/_ext/1472/MainDemo.o (INTEnableSystemMultiVectoredInt)
c:/program files (x86)/microchip/mplab c32 suite/bin/../lib/gcc/pic32mx/4.5.1/../../../../pic32mx/lib\libmchp_peripheral_32MX695F512H.a(uart_lib.o)
                              build/default/production/_ext/1472/MainDemo.o (UARTEnable)
c:/program files (x86)/microchip/mplab c32 suite/bin/../lib/gcc/pic32mx/4.5.1/../../../../pic32mx/lib\libmchp_peripheral_32MX695F512H.a(int_enable_interrupts_lib.o)
                              c:/program files (x86)/microchip/mplab c32 suite/bin/../lib/gcc/pic32mx/4.5.1/../../../../pic32mx/lib\libmchp_peripheral_32MX695F512H.a(int_enable_mv_int_lib.o) (INTEnableInterrupts)
c:/program files (x86)/microchip/mplab c32 suite/bin/../lib/gcc/pic32mx/4.5.1\libgcc.a(_umoddi3.o)
                              c:/program files (x86)/microchip/mplab c32 suite/bin/../lib/gcc/pic32mx/4.5.1/../../../../pic32mx/lib\libc.a(doprnt_cdnopsuxX.eo) (__umoddi3)

Allocating common symbols
Common symbol       size              file

UDPTxCount          0x2               build/default/production/_ext/1954962658/UDP.o
curHTTP             0x8c              build/default/production/_ext/1954962658/HTTP2.o
RawWindowState      0x2               build/default/production/_ext/243675038/WFDriverRaw.o
g_easyConfigCtx     0x98              build/default/production/_ext/243675038/WFEasyConfig.o
activeUDPSocket     0x1               build/default/production/_ext/1954962658/UDP.o
curHTTPID           0x1               build/default/production/_ext/1954962658/HTTP2.o
remoteNode          0xa               build/default/production/_ext/1954962658/StackTsk.o
RawMoveState        0x8               build/default/production/_ext/243675038/WFDriverCom.o
RawWindowReady      0x8               build/default/production/_ext/243675038/WFDriverRaw.o
g_rxIndexSetBeyondBuffer
                    0x4               build/default/production/_ext/243675038/WFMac.o
UDPRxCount          0x2               build/default/production/_ext/1954962658/UDP.o
g_ScanCtx           0x6               build/default/production/_ext/243675038/WFEasyConfig.o
UDPSocketInfo       0xe0              build/default/production/_ext/1954962658/UDP.o
httpStubs           0x10              build/default/production/_ext/1954962658/HTTP2.o

Microchip PIC32 Memory-Usage Report

kseg0 Program-Memory Usage
section                    address  length [bytes]      (dec)  Description
-------                 ----------  -------------------------  -----------
.text                   0x9d000008         0x8200       33280  App's exec code 
.rodata                 0x9d008208         0x6554       25940  Read-only const 
.text                   0x9d00e75c        0x12b9c       76700  App's exec code 
.text._vfprintf_cdnopsu 0x9d0212f8          0xae4        2788   
.text                   0x9d021ddc         0x3300       13056  App's exec code 
.rodata                 0x9d0250dc          0x520        1312  Read-only const 
.text                   0x9d0255fc          0xd6c        3436  App's exec code 
.dinit                  0x9d026368          0x464        1124   
.text                   0x9d0267cc         0x1a60        6752  App's exec code 
.rodata                 0x9d02822c          0x2e8         744  Read-only const 
.text                   0x9d028514          0xd48        3400  App's exec code 
.text.fwrite            0x9d02925c          0x1cc         460   
.text.fseek             0x9d029428          0x1c0         448   
.text                   0x9d0295e8          0x708        1800  App's exec code 
.text.fputc             0x9d029cf0          0x140         320   
.text                   0x9d029e30          0x12c         300  App's exec code 
.text._flsbuf           0x9d029f5c          0x12c         300   
.text                   0x9d02a088          0x120         288  App's exec code 
.rodata                 0x9d02a1a8          0x104         260  Read-only const 
.text                   0x9d02a2ac          0x1f0         496  App's exec code 
.text.general_exception 0x9d02a49c           0xd0         208   
.rodata                 0x9d02a56c            0x4           4  Read-only const 
.rodata                 0x9d02a570          0x198         408  Read-only const 
.text                   0x9d02a708           0xbc         188  App's exec code 
.rodata                 0x9d02a7c4           0xb8         184  Read-only const 
.text                   0x9d02a87c           0xa8         168  App's exec code 
.text.atol              0x9d02a924           0xa4         164   
.text                   0x9d02a9c8           0x98         152  App's exec code 
.text.fflush            0x9d02aa60           0x94         148   
.text.write             0x9d02aaf4           0x88         136   
.text.UARTEnable        0x9d02ab7c           0x80         128   
.text.fputs             0x9d02abfc           0x78         120   
.text.SoftReset         0x9d02ac74           0x78         120   
.rodata                 0x9d02acec           0x74         116  Read-only const 
.text.ftell             0x9d02ad60           0x6c         108   
.text._sprintf_cdnopsux 0x9d02adcc           0x68         104   
.text.UARTSetDataRate   0x9d02ae34           0x5c          92   
.text.puts              0x9d02ae90           0x44          68   
.text._printf_cdnopsuxX 0x9d02aed4           0x40          64   
.text.UARTGetDataRate   0x9d02af14           0x40          64   
.text.UARTConfigure     0x9d02af54           0x3c          60   
.text.UARTSetAddress    0x9d02af90           0x3c          60   
.text.UARTWatchForAddre 0x9d02afcc           0x38          56   
.text.INTEnableSystemMu 0x9d02b004           0x34          52   
.text.UARTSetFifoMode   0x9d02b038           0x28          40   
.text.UARTSetLineContro 0x9d02b060           0x28          40   
.rodata                 0x9d02b088           0x58          88  Read-only const 
.text.INTRestoreInterru 0x9d02b0e0           0x1c          28   
.text                   0x9d02b0fc           0x18          24  App's exec code 
.text.CheKseg0CacheOff  0x9d02b114           0x18          24   
.text.CheKseg0CacheOn   0x9d02b12c           0x18          24   
.rodata                 0x9d02b144           0x2c          44  Read-only const 
.text                   0x9d02b170           0x10          16  App's exec code 
.rodata                 0x9d02b180           0x10          16  Read-only const 
.text._bootstrap_except 0x9d02b190            0xc          12   
.rodata                 0x9d02b19c           0x10          16  Read-only const 
.text._on_reset         0x9d02b1ac            0x8           8   
.text._on_bootstrap     0x9d02b1b4            0x8           8   
.text.lseek             0x9d02b1bc            0x8           8   
.text.INTDisableInterru 0x9d02b1c4            0x8           8   
.text.INTEnableInterrup 0x9d02b1cc            0x8           8   
.rodata                 0x9d02b1d4            0x4           4  Read-only const 
      Total kseg0_program_mem used  :     0x2b1d0      176592  33.7% of 0x80000

kseg0 Boot-Memory Usage
section                    address  length [bytes]      (dec)  Description
-------                 ----------  -------------------------  -----------
         Total kseg0_boot_mem used  :           0           0  <1% of 0x970

Exception-Memory Usage 
section                    address  length [bytes]      (dec)  Description
-------                 ----------  -------------------------  -----------
.app_excpt              0x9fc01180           0x10          16  General-Exception 
.vector_4               0x9fc01280            0x8           8  Interrupt Vector 4 
.vector_7               0x9fc012e0            0x8           8  Interrupt Vector 7 
          Total exception_mem used  :        0x20          32  0.8% of 0x1000

kseg1 Boot-Memory Usage
section                    address  length [bytes]      (dec)  Description
-------                 ----------  -------------------------  -----------
.reset                  0xbfc00000          0x1f4         500  Reset handler 
.bev_excpt              0xbfc00380           0x10          16  BEV-Exception 
         Total kseg1_boot_mem used  :       0x204         516  44.2% of 0x490
        --------------------------------------------------------------------------
         Total Program Memory used  :     0x2b3f4      177140  33.3% of 0x81e00
        --------------------------------------------------------------------------


kseg1 Data-Memory Usage
section                    address  length [bytes]      (dec)  Description
-------                 ----------  -------------------------  -----------
.eh_frame               0xa0000000           0x3c          60   
.sdata                  0xa000003c           0x34          52  Small init data 
.sbss                   0xa0000070          0x118         280  Small uninit data 
.bss                    0xa0000188          0x220         544  Uninitialized data 
.bss                    0xa00003bc          0x464        1124  Uninitialized data 
.data                   0xa0000820          0x138         312  Initialized data 
.bss                    0xa0000958           0xf4         244  Uninitialized data 
.data                   0xa0000a4c           0x34          52  Initialized data 
.bss                    0xa0000a80           0x50          80  Uninitialized data 
.pbss                   0xa0000ad0            0x4           4   
         Total kseg1_data_mem used  :       0xac0        2752  2.1% of 0x20000
        --------------------------------------------------------------------------
            Total Data Memory used  :       0xac0        2752  2.1% of 0x20000
        --------------------------------------------------------------------------


Dynamic Data-Memory Reservation
section                    address  length [bytes]      (dec)  Description
-------                 ----------  -------------------------  -----------
heap                    0xa0000ad8              0           0  Reserved for heap 
stack                   0xa0000af0        0x1f500      128256  Reserved for stack 

        --------------------------------------------------------------------------

Discarded input sections

 .reginfo       0x00000000       0x18 c:/program files (x86)/microchip/mplab c32 suite/bin/../lib/gcc/pic32mx/4.5.1/../../../../pic32mx/lib/crt0.o
 .pdr           0x00000000       0xa0 c:/program files (x86)/microchip/mplab c32 suite/bin/../lib/gcc/pic32mx/4.5.1/../../../../pic32mx/lib/crt0.o
 .reginfo       0x00000000       0x18 build/default/production/_ext/1954962658/ARCFOUR.o
 .pdr           0x00000000        0x0 build/default/production/_ext/1954962658/ARCFOUR.o
 .reginfo       0x00000000       0x18 build/default/production/_ext/1954962658/ARP.o
 .pdr           0x00000000      0x140 build/default/production/_ext/1954962658/ARP.o
 .reginfo       0x00000000       0x18 build/default/production/_ext/1954962658/Announce.o
 .pdr           0x00000000       0x40 build/default/production/_ext/1954962658/Announce.o
 .reginfo       0x00000000       0x18 build/default/production/_ext/1954962658/AutoIP.o
 .pdr           0x00000000        0x0 build/default/production/_ext/1954962658/AutoIP.o
 .reginfo       0x00000000       0x18 build/default/production/_ext/1954962658/BerkeleyAPI.o
 .pdr           0x00000000        0x0 build/default/production/_ext/1954962658/BerkeleyAPI.o
 .reginfo       0x00000000       0x18 build/default/production/_ext/1954962658/BigInt.o
 .pdr           0x00000000        0x0 build/default/production/_ext/1954962658/BigInt.o
 .reginfo       0x00000000       0x18 build/default/production/_ext/1954962658/BigInt_helper_C32.o
 .pdr           0x00000000        0x0 build/default/production/_ext/1954962658/BigInt_helper_C32.o
 .reginfo       0x00000000       0x18 build/default/production/_ext/1954962658/DHCP.o
 .pdr           0x00000000      0x140 build/default/production/_ext/1954962658/DHCP.o
 .reginfo       0x00000000       0x18 build/default/production/_ext/1954962658/DHCPs.o
 .pdr           0x00000000       0x60 build/default/production/_ext/1954962658/DHCPs.o
 .reginfo       0x00000000       0x18 build/default/production/_ext/1954962658/DNS.o
 .pdr           0x00000000        0x0 build/default/production/_ext/1954962658/DNS.o
 .reginfo       0x00000000       0x18 build/default/production/_ext/1954962658/DNSs.o
 .pdr           0x00000000       0x40 build/default/production/_ext/1954962658/DNSs.o
 .reginfo       0x00000000       0x18 build/default/production/_ext/1954962658/Delay.o
 .pdr           0x00000000       0x40 build/default/production/_ext/1954962658/Delay.o
 .reginfo       0x00000000       0x18 build/default/production/_ext/1954962658/DynDNS.o
 .pdr           0x00000000        0x0 build/default/production/_ext/1954962658/DynDNS.o
 .reginfo       0x00000000       0x18 build/default/production/_ext/1954962658/FTP.o
 .pdr           0x00000000        0x0 build/default/production/_ext/1954962658/FTP.o
 .reginfo       0x00000000       0x18 build/default/production/_ext/1954962658/HTTP2.o
 .pdr           0x00000000      0x1e0 build/default/production/_ext/1954962658/HTTP2.o
 .reginfo       0x00000000       0x18 build/default/production/_ext/1954962658/Hashes.o
 .pdr           0x00000000        0x0 build/default/production/_ext/1954962658/Hashes.o
 .reginfo       0x00000000       0x18 build/default/production/_ext/1954962658/Helpers.o
 .pdr           0x00000000      0x200 build/default/production/_ext/1954962658/Helpers.o
 .reginfo       0x00000000       0x18 build/default/production/_ext/1954962658/ICMP.o
 .pdr           0x00000000       0x20 build/default/production/_ext/1954962658/ICMP.o
 .reginfo       0x00000000       0x18 build/default/production/_ext/1954962658/IP.o
 .pdr           0x00000000       0x80 build/default/production/_ext/1954962658/IP.o
 .reginfo       0x00000000       0x18 build/default/production/_ext/1954962658/LCDBlocking.o
 .pdr           0x00000000        0x0 build/default/production/_ext/1954962658/LCDBlocking.o
 .reginfo       0x00000000       0x18 build/default/production/_ext/1954962658/MPFS2.o
 .pdr           0x00000000      0x280 build/default/production/_ext/1954962658/MPFS2.o
 .reginfo       0x00000000       0x18 build/default/production/_ext/1954962658/NBNS.o
 .pdr           0x00000000       0x60 build/default/production/_ext/1954962658/NBNS.o
 .reginfo       0x00000000       0x18 build/default/production/_ext/1954962658/RSA.o
 .pdr           0x00000000        0x0 build/default/production/_ext/1954962658/RSA.o
 .reginfo       0x00000000       0x18 build/default/production/_ext/1954962658/Random.o
 .pdr           0x00000000        0x0 build/default/production/_ext/1954962658/Random.o
 .reginfo       0x00000000       0x18 build/default/production/_ext/1954962658/Reboot.o
 .pdr           0x00000000       0x20 build/default/production/_ext/1954962658/Reboot.o
 .reginfo       0x00000000       0x18 build/default/production/_ext/1954962658/SMTP.o
 .pdr           0x00000000        0x0 build/default/production/_ext/1954962658/SMTP.o
 .reginfo       0x00000000       0x18 build/default/production/_ext/1954962658/SNMP.o
 .pdr           0x00000000        0x0 build/default/production/_ext/1954962658/SNMP.o
 .reginfo       0x00000000       0x18 build/default/production/_ext/1954962658/SNTP.o
 .pdr           0x00000000        0x0 build/default/production/_ext/1954962658/SNTP.o
 .reginfo       0x00000000       0x18 build/default/production/_ext/1954962658/SPIEEPROM.o
 .pdr           0x00000000        0x0 build/default/production/_ext/1954962658/SPIEEPROM.o
 .reginfo       0x00000000       0x18 build/default/production/_ext/1954962658/SPIFlash.o
 .pdr           0x00000000        0x0 build/default/production/_ext/1954962658/SPIFlash.o
 .reginfo       0x00000000       0x18 build/default/production/_ext/1954962658/SPIRAM.o
 .pdr           0x00000000        0x0 build/default/production/_ext/1954962658/SPIRAM.o
 .reginfo       0x00000000       0x18 build/default/production/_ext/1954962658/SSL.o
 .pdr           0x00000000        0x0 build/default/production/_ext/1954962658/SSL.o
 .reginfo       0x00000000       0x18 build/default/production/_ext/1954962658/StackTsk.o
 .pdr           0x00000000       0x60 build/default/production/_ext/1954962658/StackTsk.o
 .reginfo       0x00000000       0x18 build/default/production/_ext/1954962658/TCP.o
 .pdr           0x00000000      0x420 build/default/production/_ext/1954962658/TCP.o
 .reginfo       0x00000000       0x18 build/default/production/_ext/1954962658/TCPPerformanceTest.o
 .pdr           0x00000000        0x0 build/default/production/_ext/1954962658/TCPPerformanceTest.o
 .reginfo       0x00000000       0x18 build/default/production/_ext/1954962658/TFTPc.o
 .pdr           0x00000000        0x0 build/default/production/_ext/1954962658/TFTPc.o
 .reginfo       0x00000000       0x18 build/default/production/_ext/1954962658/Telnet.o
 .pdr           0x00000000        0x0 build/default/production/_ext/1954962658/Telnet.o
 .reginfo       0x00000000       0x18 build/default/production/_ext/1954962658/Tick.o
 .pdr           0x00000000      0x100 build/default/production/_ext/1954962658/Tick.o
 .reginfo       0x00000000       0x18 build/default/production/_ext/1954962658/UART.o
 .pdr           0x00000000        0x0 build/default/production/_ext/1954962658/UART.o
 .reginfo       0x00000000       0x18 build/default/production/_ext/1954962658/UART2TCPBridge.o
 .pdr           0x00000000        0x0 build/default/production/_ext/1954962658/UART2TCPBridge.o
 .reginfo       0x00000000       0x18 build/default/production/_ext/1954962658/UDP.o
 .pdr           0x00000000      0x240 build/default/production/_ext/1954962658/UDP.o
 .reginfo       0x00000000       0x18 build/default/production/_ext/1954962658/UDPPerformanceTest.o
 .pdr           0x00000000        0x0 build/default/production/_ext/1954962658/UDPPerformanceTest.o
 .reginfo       0x00000000       0x18 build/default/production/_ext/1954962658/ZeroconfHelper.o
 .pdr           0x00000000       0x20 build/default/production/_ext/1954962658/ZeroconfHelper.o
 .reginfo       0x00000000       0x18 build/default/production/_ext/1954962658/ZeroconfLinkLocal.o
 .pdr           0x00000000       0xe0 build/default/production/_ext/1954962658/ZeroconfLinkLocal.o
 .reginfo       0x00000000       0x18 build/default/production/_ext/1954962658/ZeroconfMulticastDNS.o
 .pdr           0x00000000      0x360 build/default/production/_ext/1954962658/ZeroconfMulticastDNS.o
 .reginfo       0x00000000       0x18 build/default/production/_ext/243675038/WFConnectionAlgorithm.o
 .pdr           0x00000000      0x460 build/default/production/_ext/243675038/WFConnectionAlgorithm.o
 .reginfo       0x00000000       0x18 build/default/production/_ext/243675038/WFConnectionManager.o
 .pdr           0x00000000       0xa0 build/default/production/_ext/243675038/WFConnectionManager.o
 .reginfo       0x00000000       0x18 build/default/production/_ext/243675038/WFConnectionProfile.o
 .pdr           0x00000000      0x260 build/default/production/_ext/243675038/WFConnectionProfile.o
 .reginfo       0x00000000       0x18 build/default/production/_ext/243675038/WFConsole.o
 .pdr           0x00000000        0x0 build/default/production/_ext/243675038/WFConsole.o
 .reginfo       0x00000000       0x18 build/default/production/_ext/243675038/WFConsoleIfconfig.o
 .pdr           0x00000000        0x0 build/default/production/_ext/243675038/WFConsoleIfconfig.o
 .reginfo       0x00000000       0x18 build/default/production/_ext/243675038/WFConsoleIwconfig.o
 .pdr           0x00000000        0x0 build/default/production/_ext/243675038/WFConsoleIwconfig.o
 .reginfo       0x00000000       0x18 build/default/production/_ext/243675038/WFConsoleIwpriv.o
 .pdr           0x00000000        0x0 build/default/production/_ext/243675038/WFConsoleIwpriv.o
 .reginfo       0x00000000       0x18 build/default/production/_ext/243675038/WFConsoleMsgHandler.o
 .pdr           0x00000000       0x20 build/default/production/_ext/243675038/WFConsoleMsgHandler.o
 .reginfo       0x00000000       0x18 build/default/production/_ext/243675038/WFConsoleMsgs.o
 .pdr           0x00000000       0x40 build/default/production/_ext/243675038/WFConsoleMsgs.o
 .reginfo       0x00000000       0x18 build/default/production/_ext/243675038/WFDriverCom.o
 .pdr           0x00000000      0x1c0 build/default/production/_ext/243675038/WFDriverCom.o
 .reginfo       0x00000000       0x18 build/default/production/_ext/243675038/WFDriverRaw.o
 .pdr           0x00000000      0x2a0 build/default/production/_ext/243675038/WFDriverRaw.o
 .reginfo       0x00000000       0x18 build/default/production/_ext/243675038/WFEasyConfig.o
 .pdr           0x00000000       0xe0 build/default/production/_ext/243675038/WFEasyConfig.o
 .reginfo       0x00000000       0x18 build/default/production/_ext/243675038/WFEventHandler.o
 .pdr           0x00000000       0x60 build/default/production/_ext/243675038/WFEventHandler.o
 .reginfo       0x00000000       0x18 build/default/production/_ext/243675038/WFInit.o
 .pdr           0x00000000       0x40 build/default/production/_ext/243675038/WFInit.o
 .reginfo       0x00000000       0x18 build/default/production/_ext/243675038/WFMac.o
 .pdr           0x00000000      0x3e0 build/default/production/_ext/243675038/WFMac.o
 .reginfo       0x00000000       0x18 build/default/production/_ext/243675038/WFMgmtMsg.o
 .pdr           0x00000000       0xc0 build/default/production/_ext/243675038/WFMgmtMsg.o
 .reginfo       0x00000000       0x18 build/default/production/_ext/243675038/WFParamMsg.o
 .pdr           0x00000000      0x200 build/default/production/_ext/243675038/WFParamMsg.o
 .reginfo       0x00000000       0x18 build/default/production/_ext/243675038/WFPowerSave.o
 .pdr           0x00000000      0x140 build/default/production/_ext/243675038/WFPowerSave.o
 .reginfo       0x00000000       0x18 build/default/production/_ext/243675038/WFScan.o
 .pdr           0x00000000       0x40 build/default/production/_ext/243675038/WFScan.o
 .reginfo       0x00000000       0x18 build/default/production/_ext/243675038/WFTxPower.o
 .pdr           0x00000000       0x60 build/default/production/_ext/243675038/WFTxPower.o
 .reginfo       0x00000000       0x18 build/default/production/_ext/243675038/WF_Eint.o
 .pdr           0x00000000       0xe0 build/default/production/_ext/243675038/WF_Eint.o
 .reginfo       0x00000000       0x18 build/default/production/_ext/243675038/WF_Spi.o
 .pdr           0x00000000       0xa0 build/default/production/_ext/243675038/WF_Spi.o
 .reginfo       0x00000000       0x18 build/default/production/_ext/1472/CustomHTTPApp.o
 .pdr           0x00000000      0x1e0 build/default/production/_ext/1472/CustomHTTPApp.o
 .reginfo       0x00000000       0x18 build/default/production/_ext/1472/MPFSImg2.o
 .pdr           0x00000000        0x0 build/default/production/_ext/1472/MPFSImg2.o
 .reginfo       0x00000000       0x18 build/default/production/_ext/1472/MainDemo.o
 .pdr           0x00000000      0x120 build/default/production/_ext/1472/MainDemo.o
 .reginfo       0x00000000       0x18 build/default/production/_ext/1472/WF_Config.o
 .pdr           0x00000000       0x60 build/default/production/_ext/1472/WF_Config.o
 .reginfo       0x00000000       0x18 build/default/production/_ext/1472/IperfApp.o
 .pdr           0x00000000        0x0 build/default/production/_ext/1472/IperfApp.o
 .reginfo       0x00000000       0x18 c:/program files (x86)/microchip/mplab c32 suite/bin/../lib/gcc/pic32mx/4.5.1\libgcc.a(_udivdi3.o)
 .pdr           0x00000000       0x20 c:/program files (x86)/microchip/mplab c32 suite/bin/../lib/gcc/pic32mx/4.5.1\libgcc.a(_udivdi3.o)
 .reginfo       0x00000000       0x18 c:/program files (x86)/microchip/mplab c32 suite/bin/../lib/gcc/pic32mx/4.5.1/../../../../pic32mx/lib\libc.a(memcmp.o)
 .pdr           0x00000000       0x20 c:/program files (x86)/microchip/mplab c32 suite/bin/../lib/gcc/pic32mx/4.5.1/../../../../pic32mx/lib\libc.a(memcmp.o)
 .reginfo       0x00000000       0x18 c:/program files (x86)/microchip/mplab c32 suite/bin/../lib/gcc/pic32mx/4.5.1/../../../../pic32mx/lib\libc.a(memcpy.o)
 .pdr           0x00000000       0x20 c:/program files (x86)/microchip/mplab c32 suite/bin/../lib/gcc/pic32mx/4.5.1/../../../../pic32mx/lib\libc.a(memcpy.o)
 .reginfo       0x00000000       0x18 c:/program files (x86)/microchip/mplab c32 suite/bin/../lib/gcc/pic32mx/4.5.1/../../../../pic32mx/lib\libc.a(memset.o)
 .pdr           0x00000000       0x20 c:/program files (x86)/microchip/mplab c32 suite/bin/../lib/gcc/pic32mx/4.5.1/../../../../pic32mx/lib\libc.a(memset.o)
 .reginfo       0x00000000       0x18 c:/program files (x86)/microchip/mplab c32 suite/bin/../lib/gcc/pic32mx/4.5.1/../../../../pic32mx/lib\libc.a(strcmp.o)
 .pdr           0x00000000       0x20 c:/program files (x86)/microchip/mplab c32 suite/bin/../lib/gcc/pic32mx/4.5.1/../../../../pic32mx/lib\libc.a(strcmp.o)
 .reginfo       0x00000000       0x18 c:/program files (x86)/microchip/mplab c32 suite/bin/../lib/gcc/pic32mx/4.5.1/../../../../pic32mx/lib\libc.a(strlen.o)
 .pdr           0x00000000       0x20 c:/program files (x86)/microchip/mplab c32 suite/bin/../lib/gcc/pic32mx/4.5.1/../../../../pic32mx/lib\libc.a(strlen.o)
 .reginfo       0x00000000       0x18 c:/program files (x86)/microchip/mplab c32 suite/bin/../lib/gcc/pic32mx/4.5.1/../../../../pic32mx/lib\libc.a(general-exception.o)
 .pdr           0x00000000       0x20 c:/program files (x86)/microchip/mplab c32 suite/bin/../lib/gcc/pic32mx/4.5.1/../../../../pic32mx/lib\libc.a(general-exception.o)
 .reginfo       0x00000000       0x18 c:/program files (x86)/microchip/mplab c32 suite/bin/../lib/gcc/pic32mx/4.5.1/../../../../pic32mx/lib\libc.a(_iob.o)
 .pdr           0x00000000        0x0 c:/program files (x86)/microchip/mplab c32 suite/bin/../lib/gcc/pic32mx/4.5.1/../../../../pic32mx/lib\libc.a(_iob.o)
 .reginfo       0x00000000       0x18 c:/program files (x86)/microchip/mplab c32 suite/bin/../lib/gcc/pic32mx/4.5.1/../../../../pic32mx/lib\libc.a(fwrite.o)
 .pdr           0x00000000       0x20 c:/program files (x86)/microchip/mplab c32 suite/bin/../lib/gcc/pic32mx/4.5.1/../../../../pic32mx/lib\libc.a(fwrite.o)
 .reginfo       0x00000000       0x18 c:/program files (x86)/microchip/mplab c32 suite/bin/../lib/gcc/pic32mx/4.5.1/../../../../pic32mx/lib\libc.a(atol.o)
 .pdr           0x00000000       0x20 c:/program files (x86)/microchip/mplab c32 suite/bin/../lib/gcc/pic32mx/4.5.1/../../../../pic32mx/lib\libc.a(atol.o)
 .reginfo       0x00000000       0x18 c:/program files (x86)/microchip/mplab c32 suite/bin/../lib/gcc/pic32mx/4.5.1/../../../../pic32mx/lib\libc.a(ctype.o)
 .pdr           0x00000000        0x0 c:/program files (x86)/microchip/mplab c32 suite/bin/../lib/gcc/pic32mx/4.5.1/../../../../pic32mx/lib\libc.a(ctype.o)
 .reginfo       0x00000000       0x18 c:/program files (x86)/microchip/mplab c32 suite/bin/../lib/gcc/pic32mx/4.5.1/../../../../pic32mx/lib\libc.a(puts.o)
 .pdr           0x00000000       0x40 c:/program files (x86)/microchip/mplab c32 suite/bin/../lib/gcc/pic32mx/4.5.1/../../../../pic32mx/lib\libc.a(puts.o)
 .reginfo       0x00000000       0x18 c:/program files (x86)/microchip/mplab c32 suite/bin/../lib/gcc/pic32mx/4.5.1/../../../../pic32mx/lib\libc.a(printf_cdnopsuxX.eo)
 .pdr           0x00000000       0x20 c:/program files (x86)/microchip/mplab c32 suite/bin/../lib/gcc/pic32mx/4.5.1/../../../../pic32mx/lib\libc.a(printf_cdnopsuxX.eo)
 .reginfo       0x00000000       0x18 c:/program files (x86)/microchip/mplab c32 suite/bin/../lib/gcc/pic32mx/4.5.1/../../../../pic32mx/lib\libc.a(sprintf_cdnopsuxX.eo)
 .pdr           0x00000000       0x20 c:/program files (x86)/microchip/mplab c32 suite/bin/../lib/gcc/pic32mx/4.5.1/../../../../pic32mx/lib\libc.a(sprintf_cdnopsuxX.eo)
 .reginfo       0x00000000       0x18 c:/program files (x86)/microchip/mplab c32 suite/bin/../lib/gcc/pic32mx/4.5.1/../../../../pic32mx/lib\libc.a(default-bootstrap-exception-handler.o)
 .pdr           0x00000000       0x20 c:/program files (x86)/microchip/mplab c32 suite/bin/../lib/gcc/pic32mx/4.5.1/../../../../pic32mx/lib\libc.a(default-bootstrap-exception-handler.o)
 .reginfo       0x00000000       0x18 c:/program files (x86)/microchip/mplab c32 suite/bin/../lib/gcc/pic32mx/4.5.1/../../../../pic32mx/lib\libc.a(default-on-reset.o)
 .pdr           0x00000000       0x20 c:/program files (x86)/microchip/mplab c32 suite/bin/../lib/gcc/pic32mx/4.5.1/../../../../pic32mx/lib\libc.a(default-on-reset.o)
 .reginfo       0x00000000       0x18 c:/program files (x86)/microchip/mplab c32 suite/bin/../lib/gcc/pic32mx/4.5.1/../../../../pic32mx/lib\libc.a(default-on-bootstrap.o)
 .pdr           0x00000000       0x20 c:/program files (x86)/microchip/mplab c32 suite/bin/../lib/gcc/pic32mx/4.5.1/../../../../pic32mx/lib\libc.a(default-on-bootstrap.o)
 .reginfo       0x00000000       0x18 c:/program files (x86)/microchip/mplab c32 suite/bin/../lib/gcc/pic32mx/4.5.1/../../../../pic32mx/lib\libc.a(default-nmi-handler.o)
 .pdr           0x00000000       0x20 c:/program files (x86)/microchip/mplab c32 suite/bin/../lib/gcc/pic32mx/4.5.1/../../../../pic32mx/lib\libc.a(default-nmi-handler.o)
 .reginfo       0x00000000       0x18 c:/program files (x86)/microchip/mplab c32 suite/bin/../lib/gcc/pic32mx/4.5.1/../../../../pic32mx/lib\libc.a(fflush.o)
 .pdr           0x00000000       0x20 c:/program files (x86)/microchip/mplab c32 suite/bin/../lib/gcc/pic32mx/4.5.1/../../../../pic32mx/lib\libc.a(fflush.o)
 .reginfo       0x00000000       0x18 c:/program files (x86)/microchip/mplab c32 suite/bin/../lib/gcc/pic32mx/4.5.1/../../../../pic32mx/lib\libc.a(_fputc_simple.o)
 .pdr           0x00000000       0x20 c:/program files (x86)/microchip/mplab c32 suite/bin/../lib/gcc/pic32mx/4.5.1/../../../../pic32mx/lib\libc.a(_fputc_simple.o)
 .reginfo       0x00000000       0x18 c:/program files (x86)/microchip/mplab c32 suite/bin/../lib/gcc/pic32mx/4.5.1/../../../../pic32mx/lib\libc.a(fseek.o)
 .pdr           0x00000000       0x40 c:/program files (x86)/microchip/mplab c32 suite/bin/../lib/gcc/pic32mx/4.5.1/../../../../pic32mx/lib\libc.a(fseek.o)
 .reginfo       0x00000000       0x18 c:/program files (x86)/microchip/mplab c32 suite/bin/../lib/gcc/pic32mx/4.5.1/../../../../pic32mx/lib\libc.a(doprnt_cdnopsuxX.eo)
 .pdr           0x00000000       0x20 c:/program files (x86)/microchip/mplab c32 suite/bin/../lib/gcc/pic32mx/4.5.1/../../../../pic32mx/lib\libc.a(doprnt_cdnopsuxX.eo)
 .reginfo       0x00000000       0x18 c:/program files (x86)/microchip/mplab c32 suite/bin/../lib/gcc/pic32mx/4.5.1/../../../../pic32mx/lib\libc.a(write.o)
 .pdr           0x00000000       0x20 c:/program files (x86)/microchip/mplab c32 suite/bin/../lib/gcc/pic32mx/4.5.1/../../../../pic32mx/lib\libc.a(write.o)
 .reginfo       0x00000000       0x18 c:/program files (x86)/microchip/mplab c32 suite/bin/../lib/gcc/pic32mx/4.5.1/../../../../pic32mx/lib\libc.a(lseek.o)
 .pdr           0x00000000       0x20 c:/program files (x86)/microchip/mplab c32 suite/bin/../lib/gcc/pic32mx/4.5.1/../../../../pic32mx/lib\libc.a(lseek.o)
 .reginfo       0x00000000       0x18 c:/program files (x86)/microchip/mplab c32 suite/bin/../lib/gcc/pic32mx/4.5.1/../../../../pic32mx/lib\libc.a(_flsbuf_simple.o)
 .pdr           0x00000000       0x20 c:/program files (x86)/microchip/mplab c32 suite/bin/../lib/gcc/pic32mx/4.5.1/../../../../pic32mx/lib\libc.a(_flsbuf_simple.o)
 .reginfo       0x00000000       0x18 c:/program files (x86)/microchip/mplab c32 suite/bin/../lib/gcc/pic32mx/4.5.1/../../../../pic32mx/lib\libmchp_peripheral_32MX695F512H.a(soft_reset_lib.o)
 .pdr           0x00000000       0x20 c:/program files (x86)/microchip/mplab c32 suite/bin/../lib/gcc/pic32mx/4.5.1/../../../../pic32mx/lib\libmchp_peripheral_32MX695F512H.a(soft_reset_lib.o)
 .reginfo       0x00000000       0x18 c:/program files (x86)/microchip/mplab c32 suite/bin/../lib/gcc/pic32mx/4.5.1/../../../../pic32mx/lib\libmchp_peripheral_32MX695F512H.a(pcache.o)
 .pdr           0x00000000       0x40 c:/program files (x86)/microchip/mplab c32 suite/bin/../lib/gcc/pic32mx/4.5.1/../../../../pic32mx/lib\libmchp_peripheral_32MX695F512H.a(pcache.o)
 .reginfo       0x00000000       0x18 c:/program files (x86)/microchip/mplab c32 suite/bin/../lib/gcc/pic32mx/4.5.1/../../../../pic32mx/lib\libmchp_peripheral_32MX695F512H.a(int_disable_interrupts_lib.o)
 .pdr           0x00000000       0x20 c:/program files (x86)/microchip/mplab c32 suite/bin/../lib/gcc/pic32mx/4.5.1/../../../../pic32mx/lib\libmchp_peripheral_32MX695F512H.a(int_disable_interrupts_lib.o)
 .reginfo       0x00000000       0x18 c:/program files (x86)/microchip/mplab c32 suite/bin/../lib/gcc/pic32mx/4.5.1/../../../../pic32mx/lib\libmchp_peripheral_32MX695F512H.a(int_restore_interrupts_lib.o)
 .pdr           0x00000000       0x20 c:/program files (x86)/microchip/mplab c32 suite/bin/../lib/gcc/pic32mx/4.5.1/../../../../pic32mx/lib\libmchp_peripheral_32MX695F512H.a(int_restore_interrupts_lib.o)
 .reginfo       0x00000000       0x18 c:/program files (x86)/microchip/mplab c32 suite/bin/../lib/gcc/pic32mx/4.5.1/../../../../pic32mx/lib\libmchp_peripheral_32MX695F512H.a(int_enable_mv_int_lib.o)
 .pdr           0x00000000       0x20 c:/program files (x86)/microchip/mplab c32 suite/bin/../lib/gcc/pic32mx/4.5.1/../../../../pic32mx/lib\libmchp_peripheral_32MX695F512H.a(int_enable_mv_int_lib.o)
 .reginfo       0x00000000       0x18 c:/program files (x86)/microchip/mplab c32 suite/bin/../lib/gcc/pic32mx/4.5.1/../../../../pic32mx/lib\libmchp_peripheral_32MX695F512H.a(uart_lib.o)
 .pdr           0x00000000      0x100 c:/program files (x86)/microchip/mplab c32 suite/bin/../lib/gcc/pic32mx/4.5.1/../../../../pic32mx/lib\libmchp_peripheral_32MX695F512H.a(uart_lib.o)
 .reginfo       0x00000000       0x18 c:/program files (x86)/microchip/mplab c32 suite/bin/../lib/gcc/pic32mx/4.5.1/../../../../pic32mx/lib\libmchp_peripheral_32MX695F512H.a(int_enable_interrupts_lib.o)
 .pdr           0x00000000       0x20 c:/program files (x86)/microchip/mplab c32 suite/bin/../lib/gcc/pic32mx/4.5.1/../../../../pic32mx/lib\libmchp_peripheral_32MX695F512H.a(int_enable_interrupts_lib.o)
 .reginfo       0x00000000       0x18 c:/program files (x86)/microchip/mplab c32 suite/bin/../lib/gcc/pic32mx/4.5.1\libgcc.a(_umoddi3.o)
 .pdr           0x00000000       0x20 c:/program files (x86)/microchip/mplab c32 suite/bin/../lib/gcc/pic32mx/4.5.1\libgcc.a(_umoddi3.o)
 .reginfo       0x00000000       0x18 c:/program files (x86)/microchip/mplab c32 suite/bin/../lib/gcc/pic32mx/4.5.1/../../../../pic32mx/lib/./proc/32MX695F512H\processor.o
 .pdr           0x00000000        0x0 c:/program files (x86)/microchip/mplab c32 suite/bin/../lib/gcc/pic32mx/4.5.1/../../../../pic32mx/lib/./proc/32MX695F512H\processor.o

Memory Configuration

Name             Origin             Length             Attributes
kseg0_program_mem 0x9d000000         0x00080000         xr
kseg0_boot_mem   0x9fc00490         0x00000970
exception_mem    0x9fc01000         0x00001000
kseg1_boot_mem   0xbfc00000         0x00000490
debug_exec_mem   0xbfc02000         0x00000ff0
config3          0xbfc02ff0         0x00000004
config2          0xbfc02ff4         0x00000004
config1          0xbfc02ff8         0x00000004
config0          0xbfc02ffc         0x00000004
kseg1_data_mem   0xa0000000         0x00020000         w !x
sfrs             0xbf800000         0x00100000
configsfrs       0xbfc02ff0         0x00000010
*default*        0x00000000         0xffffffff

Linker script and memory map

LOAD c:/program files (x86)/microchip/mplab c32 suite/bin/../lib/gcc/pic32mx/4.5.1/../../../../pic32mx/lib/crt0.o
LOAD build/default/production/_ext/1954962658/ARCFOUR.o
LOAD build/default/production/_ext/1954962658/ARP.o
LOAD build/default/production/_ext/1954962658/Announce.o
LOAD build/default/production/_ext/1954962658/AutoIP.o
LOAD build/default/production/_ext/1954962658/BerkeleyAPI.o
LOAD build/default/production/_ext/1954962658/BigInt.o
LOAD build/default/production/_ext/1954962658/BigInt_helper_C32.o
LOAD build/default/production/_ext/1954962658/DHCP.o
LOAD build/default/production/_ext/1954962658/DHCPs.o
LOAD build/default/production/_ext/1954962658/DNS.o
LOAD build/default/production/_ext/1954962658/DNSs.o
LOAD build/default/production/_ext/1954962658/Delay.o
LOAD build/default/production/_ext/1954962658/DynDNS.o
LOAD build/default/production/_ext/1954962658/FTP.o
LOAD build/default/production/_ext/1954962658/HTTP2.o
LOAD build/default/production/_ext/1954962658/Hashes.o
LOAD build/default/production/_ext/1954962658/Helpers.o
LOAD build/default/production/_ext/1954962658/ICMP.o
LOAD build/default/production/_ext/1954962658/IP.o
LOAD build/default/production/_ext/1954962658/LCDBlocking.o
LOAD build/default/production/_ext/1954962658/MPFS2.o
LOAD build/default/production/_ext/1954962658/NBNS.o
LOAD build/default/production/_ext/1954962658/RSA.o
LOAD build/default/production/_ext/1954962658/Random.o
LOAD build/default/production/_ext/1954962658/Reboot.o
LOAD build/default/production/_ext/1954962658/SMTP.o
LOAD build/default/production/_ext/1954962658/SNMP.o
LOAD build/default/production/_ext/1954962658/SNTP.o
LOAD build/default/production/_ext/1954962658/SPIEEPROM.o
LOAD build/default/production/_ext/1954962658/SPIFlash.o
LOAD build/default/production/_ext/1954962658/SPIRAM.o
LOAD build/default/production/_ext/1954962658/SSL.o
LOAD build/default/production/_ext/1954962658/StackTsk.o
LOAD build/default/production/_ext/1954962658/TCP.o
LOAD build/default/production/_ext/1954962658/TCPPerformanceTest.o
LOAD build/default/production/_ext/1954962658/TFTPc.o
LOAD build/default/production/_ext/1954962658/Telnet.o
LOAD build/default/production/_ext/1954962658/Tick.o
LOAD build/default/production/_ext/1954962658/UART.o
LOAD build/default/production/_ext/1954962658/UART2TCPBridge.o
LOAD build/default/production/_ext/1954962658/UDP.o
LOAD build/default/production/_ext/1954962658/UDPPerformanceTest.o
LOAD build/default/production/_ext/1954962658/ZeroconfHelper.o
LOAD build/default/production/_ext/1954962658/ZeroconfLinkLocal.o
LOAD build/default/production/_ext/1954962658/ZeroconfMulticastDNS.o
LOAD build/default/production/_ext/243675038/WFConnectionAlgorithm.o
LOAD build/default/production/_ext/243675038/WFConnectionManager.o
LOAD build/default/production/_ext/243675038/WFConnectionProfile.o
LOAD build/default/production/_ext/243675038/WFConsole.o
LOAD build/default/production/_ext/243675038/WFConsoleIfconfig.o
LOAD build/default/production/_ext/243675038/WFConsoleIwconfig.o
LOAD build/default/production/_ext/243675038/WFConsoleIwpriv.o
LOAD build/default/production/_ext/243675038/WFConsoleMsgHandler.o
LOAD build/default/production/_ext/243675038/WFConsoleMsgs.o
LOAD build/default/production/_ext/243675038/WFDriverCom.o
LOAD build/default/production/_ext/243675038/WFDriverRaw.o
LOAD build/default/production/_ext/243675038/WFEasyConfig.o
LOAD build/default/production/_ext/243675038/WFEventHandler.o
LOAD build/default/production/_ext/243675038/WFInit.o
LOAD build/default/production/_ext/243675038/WFMac.o
LOAD build/default/production/_ext/243675038/WFMgmtMsg.o
LOAD build/default/production/_ext/243675038/WFParamMsg.o
LOAD build/default/production/_ext/243675038/WFPowerSave.o
LOAD build/default/production/_ext/243675038/WFScan.o
LOAD build/default/production/_ext/243675038/WFTxPower.o
LOAD build/default/production/_ext/243675038/WF_Eint.o
LOAD build/default/production/_ext/243675038/WF_Spi.o
LOAD build/default/production/_ext/1472/CustomHTTPApp.o
LOAD build/default/production/_ext/1472/MPFSImg2.o
LOAD build/default/production/_ext/1472/MainDemo.o
LOAD build/default/production/_ext/1472/WF_Config.o
LOAD build/default/production/_ext/1472/IperfApp.o
                0x00000001                __MPLAB_BUILD = 0x1
LOAD c:/program files (x86)/microchip/mplab c32 suite/bin/../lib/gcc/pic32mx/4.5.1\libgcc.a
START GROUP
LOAD c:/program files (x86)/microchip/mplab c32 suite/bin/../lib/gcc/pic32mx/4.5.1/../../../../pic32mx/lib\libdebug.a
LOAD c:/program files (x86)/microchip/mplab c32 suite/bin/../lib/gcc/pic32mx/4.5.1/../../../../pic32mx/lib\libc.a
LOAD c:/program files (x86)/microchip/mplab c32 suite/bin/../lib/gcc/pic32mx/4.5.1/../../../../pic32mx/lib\libm.a
LOAD c:/program files (x86)/microchip/mplab c32 suite/bin/../lib/gcc/pic32mx/4.5.1/../../../../pic32mx/lib\libe.a
LOAD c:/program files (x86)/microchip/mplab c32 suite/bin/../lib/gcc/pic32mx/4.5.1/../../../../pic32mx/lib\libdsp.a
LOAD c:/program files (x86)/microchip/mplab c32 suite/bin/../lib/gcc/pic32mx/4.5.1/../../../../pic32mx/lib\libmchp_peripheral.a
LOAD c:/program files (x86)/microchip/mplab c32 suite/bin/../lib/gcc/pic32mx/4.5.1/../../../../pic32mx/lib\libmchp_peripheral_32MX695F512H.a
END GROUP
LOAD c:/program files (x86)/microchip/mplab c32 suite/bin/../lib/gcc/pic32mx/4.5.1\libgcc.a
                0x00000400                PROVIDE (_min_stack_size, 0x400)
                0x00000000                PROVIDE (_min_heap_size, 0x0)
LOAD c:/program files (x86)/microchip/mplab c32 suite/bin/../lib/gcc/pic32mx/4.5.1/../../../../pic32mx/lib/./proc/32MX695F512H\processor.o
                0x00000001                PROVIDE (_vector_spacing, 0x1)
                0x9fc01000                _ebase_address = 0x9fc01000
                0xbfc00000                _RESET_ADDR = 0xbfc00000
                0xbfc00380                _BEV_EXCPT_ADDR = 0xbfc00380
                0xbfc00480                _DBG_EXCPT_ADDR = 0xbfc00480
                0xbfc02000                _DBG_CODE_ADDR = 0xbfc02000
                0x00000ff0                _DBG_CODE_SIZE = 0xff0
                0x9fc01180                _GEN_EXCPT_ADDR = (_ebase_address + 0x180)

.config_BFC02FF0
 *(.config_BFC02FF0)

.config_BFC02FF4
                0xbfc02ff4        0x4
 *(.config_BFC02FF4)
 .config_BFC02FF4
                0xbfc02ff4        0x4 build/default/production/_ext/1472/MainDemo.o

.config_BFC02FF8
                0xbfc02ff8        0x4
 *(.config_BFC02FF8)
 .config_BFC02FF8
                0xbfc02ff8        0x4 build/default/production/_ext/1472/MainDemo.o

.config_BFC02FFC
                0xbfc02ffc        0x4
 *(.config_BFC02FFC)
 .config_BFC02FFC
                0xbfc02ffc        0x4 build/default/production/_ext/1472/MainDemo.o
                0xbfc02000                PROVIDE (_DBG_CODE_ADDR, 0xbfc02000)
                0x00000ff0                PROVIDE (_DBG_CODE_SIZE, 0xff0)

.reset          0xbfc00000      0x1f4
 *(.reset)
 .reset         0xbfc00000       0x10 c:/program files (x86)/microchip/mplab c32 suite/bin/../lib/gcc/pic32mx/4.5.1/../../../../pic32mx/lib/crt0.o
                0xbfc00000                _reset
 *(.reset.startup)
 .reset.startup
                0xbfc00010      0x1e4 c:/program files (x86)/microchip/mplab c32 suite/bin/../lib/gcc/pic32mx/4.5.1/../../../../pic32mx/lib/crt0.o

.bev_excpt      0xbfc00380       0x10
 *(.bev_handler)
 .bev_handler   0xbfc00380       0x10 c:/program files (x86)/microchip/mplab c32 suite/bin/../lib/gcc/pic32mx/4.5.1/../../../../pic32mx/lib/crt0.o

.dbg_excpt      0xbfc00480        0x0
                0xbfc00480                . = (. + DEFINED (_DEBUGGER)?0x8:0x0)

.dbg_code       0xbfc02000        0x0
                0xbfc02000                . = (. + DEFINED (_DEBUGGER)?_DBG_CODE_SIZE:0x0)

.app_excpt      0x9fc01180       0x10
 *(.gen_handler)
 .gen_handler   0x9fc01180       0x10 c:/program files (x86)/microchip/mplab c32 suite/bin/../lib/gcc/pic32mx/4.5.1/../../../../pic32mx/lib/crt0.o

.vector_0       0x9fc01200        0x0
 *(.vector_0)
                0x00000001                ASSERT (((_vector_spacing == 0x0) || (SIZEOF (.vector_0) <= (_vector_spacing << 0x5))), function at exception vector 0 too large)

.vector_1       0x9fc01220        0x0
 *(.vector_1)
                0x00000001                ASSERT (((_vector_spacing == 0x0) || (SIZEOF (.vector_1) <= (_vector_spacing << 0x5))), function at exception vector 1 too large)

.vector_2       0x9fc01240        0x0
 *(.vector_2)
                0x00000001                ASSERT (((_vector_spacing == 0x0) || (SIZEOF (.vector_2) <= (_vector_spacing << 0x5))), function at exception vector 2 too large)

.vector_3       0x9fc01260        0x0
 *(.vector_3)
                0x00000001                ASSERT (((_vector_spacing == 0x0) || (SIZEOF (.vector_3) <= (_vector_spacing << 0x5))), function at exception vector 3 too large)

.vector_4       0x9fc01280        0x8
 *(.vector_4)
 .vector_4      0x9fc01280        0x8 build/default/production/_ext/1954962658/Tick.o
                0x00000001                ASSERT (((_vector_spacing == 0x0) || (SIZEOF (.vector_4) <= (_vector_spacing << 0x5))), function at exception vector 4 too large)

.vector_5       0x9fc012a0        0x0
 *(.vector_5)
                0x00000001                ASSERT (((_vector_spacing == 0x0) || (SIZEOF (.vector_5) <= (_vector_spacing << 0x5))), function at exception vector 5 too large)

.vector_6       0x9fc012c0        0x0
 *(.vector_6)
                0x00000001                ASSERT (((_vector_spacing == 0x0) || (SIZEOF (.vector_6) <= (_vector_spacing << 0x5))), function at exception vector 6 too large)

.vector_7       0x9fc012e0        0x8
 *(.vector_7)
 .vector_7      0x9fc012e0        0x8 build/default/production/_ext/243675038/WF_Eint.o
                0x00000001                ASSERT (((_vector_spacing == 0x0) || (SIZEOF (.vector_7) <= (_vector_spacing << 0x5))), function at exception vector 7 too large)

.vector_8       0x9fc01300        0x0
 *(.vector_8)
                0x00000001                ASSERT (((_vector_spacing == 0x0) || (SIZEOF (.vector_8) <= (_vector_spacing << 0x5))), function at exception vector 8 too large)

.vector_9       0x9fc01320        0x0
 *(.vector_9)
                0x00000001                ASSERT (((_vector_spacing == 0x0) || (SIZEOF (.vector_9) <= (_vector_spacing << 0x5))), function at exception vector 9 too large)

.vector_10      0x9fc01340        0x0
 *(.vector_10)
                0x00000001                ASSERT (((_vector_spacing == 0x0) || (SIZEOF (.vector_10) <= (_vector_spacing << 0x5))), function at exception vector 10 too large)

.vector_11      0x9fc01360        0x0
 *(.vector_11)
                0x00000001                ASSERT (((_vector_spacing == 0x0) || (SIZEOF (.vector_11) <= (_vector_spacing << 0x5))), function at exception vector 11 too large)

.vector_12      0x9fc01380        0x0
 *(.vector_12)
                0x00000001                ASSERT (((_vector_spacing == 0x0) || (SIZEOF (.vector_12) <= (_vector_spacing << 0x5))), function at exception vector 12 too large)

.vector_13      0x9fc013a0        0x0
 *(.vector_13)
                0x00000001                ASSERT (((_vector_spacing == 0x0) || (SIZEOF (.vector_13) <= (_vector_spacing << 0x5))), function at exception vector 13 too large)

.vector_14      0x9fc013c0        0x0
 *(.vector_14)
                0x00000001                ASSERT (((_vector_spacing == 0x0) || (SIZEOF (.vector_14) <= (_vector_spacing << 0x5))), function at exception vector 14 too large)

.vector_15      0x9fc013e0        0x0
 *(.vector_15)
                0x00000001                ASSERT (((_vector_spacing == 0x0) || (SIZEOF (.vector_15) <= (_vector_spacing << 0x5))), function at exception vector 15 too large)

.vector_16      0x9fc01400        0x0
 *(.vector_16)
                0x00000001                ASSERT (((_vector_spacing == 0x0) || (SIZEOF (.vector_16) <= (_vector_spacing << 0x5))), function at exception vector 16 too large)

.vector_17      0x9fc01420        0x0
 *(.vector_17)
                0x00000001                ASSERT (((_vector_spacing == 0x0) || (SIZEOF (.vector_17) <= (_vector_spacing << 0x5))), function at exception vector 17 too large)

.vector_18      0x9fc01440        0x0
 *(.vector_18)
                0x00000001                ASSERT (((_vector_spacing == 0x0) || (SIZEOF (.vector_18) <= (_vector_spacing << 0x5))), function at exception vector 18 too large)

.vector_19      0x9fc01460        0x0
 *(.vector_19)
                0x00000001                ASSERT (((_vector_spacing == 0x0) || (SIZEOF (.vector_19) <= (_vector_spacing << 0x5))), function at exception vector 19 too large)

.vector_20      0x9fc01480        0x0
 *(.vector_20)
                0x00000001                ASSERT (((_vector_spacing == 0x0) || (SIZEOF (.vector_20) <= (_vector_spacing << 0x5))), function at exception vector 20 too large)

.vector_21      0x9fc014a0        0x0
 *(.vector_21)
                0x00000001                ASSERT (((_vector_spacing == 0x0) || (SIZEOF (.vector_21) <= (_vector_spacing << 0x5))), function at exception vector 21 too large)

.vector_22      0x9fc014c0        0x0
 *(.vector_22)
                0x00000001                ASSERT (((_vector_spacing == 0x0) || (SIZEOF (.vector_22) <= (_vector_spacing << 0x5))), function at exception vector 22 too large)

.vector_23      0x9fc014e0        0x0
 *(.vector_23)
                0x00000001                ASSERT (((_vector_spacing == 0x0) || (SIZEOF (.vector_23) <= (_vector_spacing << 0x5))), function at exception vector 23 too large)

.vector_24      0x9fc01500        0x0
 *(.vector_24)
                0x00000001                ASSERT (((_vector_spacing == 0x0) || (SIZEOF (.vector_24) <= (_vector_spacing << 0x5))), function at exception vector 24 too large)

.vector_25      0x9fc01520        0x0
 *(.vector_25)
                0x00000001                ASSERT (((_vector_spacing == 0x0) || (SIZEOF (.vector_25) <= (_vector_spacing << 0x5))), function at exception vector 25 too large)

.vector_26      0x9fc01540        0x0
 *(.vector_26)
                0x00000001                ASSERT (((_vector_spacing == 0x0) || (SIZEOF (.vector_26) <= (_vector_spacing << 0x5))), function at exception vector 26 too large)

.vector_27      0x9fc01560        0x0
 *(.vector_27)
                0x00000001                ASSERT (((_vector_spacing == 0x0) || (SIZEOF (.vector_27) <= (_vector_spacing << 0x5))), function at exception vector 27 too large)

.vector_28      0x9fc01580        0x0
 *(.vector_28)
                0x00000001                ASSERT (((_vector_spacing == 0x0) || (SIZEOF (.vector_28) <= (_vector_spacing << 0x5))), function at exception vector 28 too large)

.vector_29      0x9fc015a0        0x0
 *(.vector_29)
                0x00000001                ASSERT (((_vector_spacing == 0x0) || (SIZEOF (.vector_29) <= (_vector_spacing << 0x5))), function at exception vector 29 too large)

.vector_30      0x9fc015c0        0x0
 *(.vector_30)
                0x00000001                ASSERT (((_vector_spacing == 0x0) || (SIZEOF (.vector_30) <= (_vector_spacing << 0x5))), function at exception vector 30 too large)

.vector_31      0x9fc015e0        0x0
 *(.vector_31)
                0x00000001                ASSERT (((_vector_spacing == 0x0) || (SIZEOF (.vector_31) <= (_vector_spacing << 0x5))), function at exception vector 31 too large)

.vector_32      0x9fc01600        0x0
 *(.vector_32)
                0x00000001                ASSERT (((_vector_spacing == 0x0) || (SIZEOF (.vector_32) <= (_vector_spacing << 0x5))), function at exception vector 32 too large)

.vector_33      0x9fc01620        0x0
 *(.vector_33)
                0x00000001                ASSERT (((_vector_spacing == 0x0) || (SIZEOF (.vector_33) <= (_vector_spacing << 0x5))), function at exception vector 33 too large)

.vector_34      0x9fc01640        0x0
 *(.vector_34)
                0x00000001                ASSERT (((_vector_spacing == 0x0) || (SIZEOF (.vector_34) <= (_vector_spacing << 0x5))), function at exception vector 34 too large)

.vector_35      0x9fc01660        0x0
 *(.vector_35)
                0x00000001                ASSERT (((_vector_spacing == 0x0) || (SIZEOF (.vector_35) <= (_vector_spacing << 0x5))), function at exception vector 35 too large)

.vector_36      0x9fc01680        0x0
 *(.vector_36)
                0x00000001                ASSERT (((_vector_spacing == 0x0) || (SIZEOF (.vector_36) <= (_vector_spacing << 0x5))), function at exception vector 36 too large)

.vector_37      0x9fc016a0        0x0
 *(.vector_37)
                0x00000001                ASSERT (((_vector_spacing == 0x0) || (SIZEOF (.vector_37) <= (_vector_spacing << 0x5))), function at exception vector 37 too large)

.vector_38      0x9fc016c0        0x0
 *(.vector_38)
                0x00000001                ASSERT (((_vector_spacing == 0x0) || (SIZEOF (.vector_38) <= (_vector_spacing << 0x5))), function at exception vector 38 too large)

.vector_39      0x9fc016e0        0x0
 *(.vector_39)
                0x00000001                ASSERT (((_vector_spacing == 0x0) || (SIZEOF (.vector_39) <= (_vector_spacing << 0x5))), function at exception vector 39 too large)

.vector_40      0x9fc01700        0x0
 *(.vector_40)
                0x00000001                ASSERT (((_vector_spacing == 0x0) || (SIZEOF (.vector_40) <= (_vector_spacing << 0x5))), function at exception vector 40 too large)

.vector_41      0x9fc01720        0x0
 *(.vector_41)
                0x00000001                ASSERT (((_vector_spacing == 0x0) || (SIZEOF (.vector_41) <= (_vector_spacing << 0x5))), function at exception vector 41 too large)

.vector_42      0x9fc01740        0x0
 *(.vector_42)
                0x00000001                ASSERT (((_vector_spacing == 0x0) || (SIZEOF (.vector_42) <= (_vector_spacing << 0x5))), function at exception vector 42 too large)

.vector_43      0x9fc01760        0x0
 *(.vector_43)
                0x00000001                ASSERT (((_vector_spacing == 0x0) || (SIZEOF (.vector_43) <= (_vector_spacing << 0x5))), function at exception vector 43 too large)

.vector_44      0x9fc01780        0x0
 *(.vector_44)
                0x00000001                ASSERT (((_vector_spacing == 0x0) || (SIZEOF (.vector_44) <= (_vector_spacing << 0x5))), function at exception vector 44 too large)

.vector_45      0x9fc017a0        0x0
 *(.vector_45)
                0x00000001                ASSERT (((_vector_spacing == 0x0) || (SIZEOF (.vector_45) <= (_vector_spacing << 0x5))), function at exception vector 45 too large)

.vector_46      0x9fc017c0        0x0
 *(.vector_46)
                0x00000001                ASSERT (((_vector_spacing == 0x0) || (SIZEOF (.vector_46) <= (_vector_spacing << 0x5))), function at exception vector 46 too large)

.vector_47      0x9fc017e0        0x0
 *(.vector_47)
                0x00000001                ASSERT (((_vector_spacing == 0x0) || (SIZEOF (.vector_47) <= (_vector_spacing << 0x5))), function at exception vector 47 too large)

.vector_48      0x9fc01800        0x0
 *(.vector_48)
                0x00000001                ASSERT (((_vector_spacing == 0x0) || (SIZEOF (.vector_48) <= (_vector_spacing << 0x5))), function at exception vector 48 too large)

.vector_49      0x9fc01820        0x0
 *(.vector_49)
                0x00000001                ASSERT (((_vector_spacing == 0x0) || (SIZEOF (.vector_49) <= (_vector_spacing << 0x5))), function at exception vector 49 too large)

.vector_50      0x9fc01840        0x0
 *(.vector_50)
                0x00000001                ASSERT (((_vector_spacing == 0x0) || (SIZEOF (.vector_50) <= (_vector_spacing << 0x5))), function at exception vector 50 too large)

.vector_51      0x9fc01860        0x0
 *(.vector_51)
                0x00000001                ASSERT (((_vector_spacing == 0x0) || (SIZEOF (.vector_51) <= (_vector_spacing << 0x5))), function at exception vector 51 too large)

.vector_52      0x9fc01880        0x0
 *(.vector_52)
                0x00000001                ASSERT (((_vector_spacing == 0x0) || (SIZEOF (.vector_52) <= (_vector_spacing << 0x5))), function at exception vector 52 too large)

.vector_53      0x9fc018a0        0x0
 *(.vector_53)
                0x00000001                ASSERT (((_vector_spacing == 0x0) || (SIZEOF (.vector_53) <= (_vector_spacing << 0x5))), function at exception vector 53 too large)

.vector_54      0x9fc018c0        0x0
 *(.vector_54)
                0x00000001                ASSERT (((_vector_spacing == 0x0) || (SIZEOF (.vector_54) <= (_vector_spacing << 0x5))), function at exception vector 54 too large)

.vector_55      0x9fc018e0        0x0
 *(.vector_55)
                0x00000001                ASSERT (((_vector_spacing == 0x0) || (SIZEOF (.vector_55) <= (_vector_spacing << 0x5))), function at exception vector 55 too large)

.vector_56      0x9fc01900        0x0
 *(.vector_56)
                0x00000001                ASSERT (((_vector_spacing == 0x0) || (SIZEOF (.vector_56) <= (_vector_spacing << 0x5))), function at exception vector 56 too large)

.vector_57      0x9fc01920        0x0
 *(.vector_57)
                0x00000001                ASSERT (((_vector_spacing == 0x0) || (SIZEOF (.vector_57) <= (_vector_spacing << 0x5))), function at exception vector 57 too large)

.vector_58      0x9fc01940        0x0
 *(.vector_58)
                0x00000001                ASSERT (((_vector_spacing == 0x0) || (SIZEOF (.vector_58) <= (_vector_spacing << 0x5))), function at exception vector 58 too large)

.vector_59      0x9fc01960        0x0
 *(.vector_59)
                0x00000001                ASSERT (((_vector_spacing == 0x0) || (SIZEOF (.vector_59) <= (_vector_spacing << 0x5))), function at exception vector 59 too large)

.vector_60      0x9fc01980        0x0
 *(.vector_60)
                0x00000001                ASSERT (((_vector_spacing == 0x0) || (SIZEOF (.vector_60) <= (_vector_spacing << 0x5))), function at exception vector 60 too large)

.vector_61      0x9fc019a0        0x0
 *(.vector_61)
                0x00000001                ASSERT (((_vector_spacing == 0x0) || (SIZEOF (.vector_61) <= (_vector_spacing << 0x5))), function at exception vector 61 too large)

.vector_62      0x9fc019c0        0x0
 *(.vector_62)
                0x00000001                ASSERT (((_vector_spacing == 0x0) || (SIZEOF (.vector_62) <= (_vector_spacing << 0x5))), function at exception vector 62 too large)

.vector_63      0x9fc019e0        0x0
 *(.vector_63)
                0x00000001                ASSERT (((_vector_spacing == 0x0) || (SIZEOF (.vector_63) <= (_vector_spacing << 0x5))), function at exception vector 63 too large)

.startup
 *(.startup)

.text
 *(.stub .gnu.linkonce.t.*)
 *(.text.*personality*)
 *(.mips16.fn.*)
 *(.mips16.call.*)
 *(.gnu.warning)

.rodata         0x9d000000        0x0
 *(.rodata.* .gnu.linkonce.r.*)
 *(.rodata1)
                0x9d000000                . = ALIGN (0x4)

.sdata2         0x9fc00490        0x0
 *(.sdata2 .sdata2.* .gnu.linkonce.s2.*)
                0x9fc00490                . = ALIGN (0x4)

.sbss2          0x9fc00490        0x0
 *(.sbss2 .sbss2.* .gnu.linkonce.sb2.*)
                0x9fc00490                . = ALIGN (0x4)

.eh_frame_hdr
 *(.eh_frame_hdr)

.eh_frame
 *(.eh_frame)

.dbg_data       0xa0000000        0x0
                0xa0000000                . = (. + DEFINED (_DEBUGGER)?0x200:0x0)

.persist        0xa0000000        0x0
                0xa0000000                _persist_begin = .
 *(.persist .persist.*)
                0xa0000000                . = ALIGN (0x4)
                0xa0000000                _persist_end = .

.eh_frame       0xa0000000       0x3c
 *(.eh_frame)
 .eh_frame      0xa0000000       0x28 c:/program files (x86)/microchip/mplab c32 suite/bin/../lib/gcc/pic32mx/4.5.1\libgcc.a(_udivdi3.o)
 .eh_frame      0xa0000028       0x14 c:/program files (x86)/microchip/mplab c32 suite/bin/../lib/gcc/pic32mx/4.5.1\libgcc.a(_umoddi3.o)
                                 0x28 (size before relaxing)
                0xa000003c                . = .
                0xa0008030                _gp = (ALIGN (0x10) + 0x7ff0)

.got
 *(.got.plt)
 *(.got)

.sdata          0xa000003c       0x34
                0xa000003c                _sdata_begin = .
 *(.sdata .sdata.* .gnu.linkonce.s.*)
 .sdata         0xa000003c        0x4 build/default/production/_ext/1954962658/DHCPs.o
                0xa000003c                bDHCPServerEnabled
 .sdata         0xa0000040        0x1 build/default/production/_ext/1954962658/DNSs.o
 *fill*         0xa0000041        0x3 00
 .sdata         0xa0000044        0x4 build/default/production/_ext/1954962658/Helpers.o
 .sdata         0xa0000048        0x1 build/default/production/_ext/1954962658/Reboot.o
 .sdata         0xa0000049        0x2 build/default/production/_ext/1954962658/TCP.o
 .sdata         0xa000004b        0x2 build/default/production/_ext/1954962658/UDP.o
 .sdata         0xa000004d        0x1 build/default/production/_ext/1954962658/ZeroconfHelper.o
                0xa000004d                zeroconf_dbg_level
 *fill*         0xa000004e        0x2 00
 .sdata         0xa0000050        0x8 build/default/production/_ext/1954962658/ZeroconfLinkLocal.o
 .sdata         0xa0000058        0x8 build/default/production/_ext/1954962658/ZeroconfMulticastDNS.o
                0xa0000058                CONST_STR_local
                0xa000005c                mDNS_socket
 .sdata         0xa0000060        0x1 build/default/production/_ext/243675038/WFConnectionAlgorithm.o
 .sdata         0xa0000061        0x1 build/default/production/_ext/243675038/WFPowerSave.o
 *fill*         0xa0000062        0x2 00
 .sdata         0xa0000064        0x8 build/default/production/_ext/1472/CustomHTTPApp.o
                0xa0000064                number
 .sdata         0xa000006c        0x4 c:/program files (x86)/microchip/mplab c32 suite/bin/../lib/gcc/pic32mx/4.5.1/../../../../pic32mx/lib\libc.a(_iob.o)
                0xa000006c                _Files
                0xa0000070                _sdata_end = .

.lit8
 *(.lit8)

.lit4
 *(.lit4)
                0xa0000070                . = ALIGN (0x4)
                0xa0000070                _data_end = .
                0xa0000070                _bss_begin = .

.sbss           0xa0000070      0x118
                0xa0000070                _sbss_begin = .
 *(.dynsbss)
 *(.sbss .sbss.* .gnu.linkonce.sb.*)
 .sbss          0xa0000070        0x4 build/default/production/_ext/1954962658/ARP.o
 .sbss          0xa0000074        0x8 build/default/production/_ext/1954962658/Announce.o
 .sbss          0xa000007c        0x4 build/default/production/_ext/1954962658/DHCP.o
                0xa000007c                DHCPClientInitializedOnce
 .sbss          0xa0000080        0xc build/default/production/_ext/1954962658/DHCPs.o
 .sbss          0xa000008c        0x4 build/default/production/_ext/1954962658/IP.o
 .sbss          0xa0000090        0x8 build/default/production/_ext/1954962658/MPFS2.o
 .sbss          0xa0000098        0x8 build/default/production/_ext/1954962658/NBNS.o
 .sbss          0xa00000a0        0x8 build/default/production/_ext/1954962658/StackTsk.o
 .sbss          0xa00000a8        0xc build/default/production/_ext/1954962658/Tick.o
 .sbss          0xa00000b4        0x8 build/default/production/_ext/1954962658/UDP.o
 .sbss          0xa00000bc       0x30 build/default/production/_ext/1954962658/ZeroconfLinkLocal.o
                0xa00000bc                zcll_state
                0xa00000c0                zcll_dhcp_substate
 .sbss          0xa00000ec        0x8 build/default/production/_ext/1954962658/ZeroconfMulticastDNS.o
 .sbss          0xa00000f4        0x4 build/default/production/_ext/243675038/WFConnectionManager.o
 .sbss          0xa00000f8       0x14 build/default/production/_ext/243675038/WFDriverCom.o
 .sbss          0xa000010c        0x4 build/default/production/_ext/243675038/WFDriverRaw.o
                0xa000010c                g_HostRAWDataPacketReceived
 .sbss          0xa0000110       0x1c build/default/production/_ext/243675038/WFMac.o
 .sbss          0xa000012c       0x10 build/default/production/_ext/243675038/WFMgmtMsg.o
                0xa0000138                g_MgmtResponseInProgress
 .sbss          0xa000013c        0x4 build/default/production/_ext/243675038/WFPowerSave.o
 .sbss          0xa0000140        0x1 build/default/production/_ext/243675038/WF_Spi.o
 *fill*         0xa0000141        0x3 00
 .sbss          0xa0000144       0x14 build/default/production/_ext/1472/CustomHTTPApp.o
                0xa000014c                digit
                0xa0000150                n
                0xa0000154                i
 .sbss          0xa0000158        0x8 build/default/production/_ext/1472/MainDemo.o
                0xa0000158                gRFModuleVer1209orLater
 .sbss          0xa0000160        0x1 c:/program files (x86)/microchip/mplab c32 suite/bin/../lib/gcc/pic32mx/4.5.1/../../../../pic32mx/lib\libc.a(_iob.o)
                0xa0000160                _outdone
 *(.scommon)
 .scommon       0xa0000161        0x1 build/default/production/_ext/1954962658/HTTP2.o
                0xa0000161                curHTTPID
 .scommon       0xa0000162        0x6 build/default/production/_ext/1954962658/UDP.o
                0xa0000162                UDPTxCount
                0xa0000164                activeUDPSocket
                0xa0000166                UDPRxCount
 .scommon       0xa0000168        0x8 build/default/production/_ext/243675038/WFDriverCom.o
                0xa0000168                RawMoveState
 .scommon       0xa0000170        0xc build/default/production/_ext/243675038/WFDriverRaw.o
                0xa0000170                RawWindowState
                0xa0000174                RawWindowReady
 .scommon       0xa000017c        0x6 build/default/production/_ext/243675038/WFEasyConfig.o
                0xa000017c                g_ScanCtx
 *fill*         0xa0000182        0x2 00
 .scommon       0xa0000184        0x4 build/default/production/_ext/243675038/WFMac.o
                0xa0000184                g_rxIndexSetBeyondBuffer
                0xa0000188                _sbss_end = .

.bss            0xa0000188      0x220
 *(.dynbss)
 *(COMMON)
 COMMON         0xa0000188       0x9c build/default/production/_ext/1954962658/HTTP2.o
                0xa0000188                curHTTP
                0xa0000214                httpStubs
 COMMON         0xa0000224        0xa build/default/production/_ext/1954962658/StackTsk.o
                0xa0000224                remoteNode
 *fill*         0xa000022e        0x2 00
 COMMON         0xa0000230       0xe0 build/default/production/_ext/1954962658/UDP.o
                0xa0000230                UDPSocketInfo
 COMMON         0xa0000310       0x98 build/default/production/_ext/243675038/WFEasyConfig.o
                0xa0000310                g_easyConfigCtx
                0xa00003a8                . = ALIGN (0x4)
                0xa00003a8                . = ALIGN (0x4)
                0xa00003a8                _end = .
                0xa00003a8                _bss_end = .
                0x00020000                _bmxdudba_address = 0x20000
                0x00020000                _bmxdupba_address = 0x20000

/DISCARD/
 *(.pdr)
 *(.reginfo)
 *(.rel.dyn)
 *(.note.GNU-stack)
 *(.note.GNU-stack)
 *(.gnu_debuglink)
 *(.gnu.lto_*)
 *(.discard)

.stab
 *(.stab)

.stabstr
 *(.stabstr)

.stab.excl
 *(.stab.excl)

.stab.exclstr
 *(.stab.exclstr)

.stab.index
 *(.stab.index)

.stab.indexstr
 *(.stab.indexstr)

.comment        0x00000000      0x244
 *(.comment)
 .comment       0x00000000       0x51 build/default/production/_ext/1954962658/ARCFOUR.o
                                 0x52 (size before relaxing)
 .comment       0x00000000       0x52 build/default/production/_ext/1954962658/ARP.o
 .comment       0x00000000       0x52 build/default/production/_ext/1954962658/Announce.o
 .comment       0x00000000       0x52 build/default/production/_ext/1954962658/AutoIP.o
 .comment       0x00000000       0x52 build/default/production/_ext/1954962658/BerkeleyAPI.o
 .comment       0x00000000       0x52 build/default/production/_ext/1954962658/BigInt.o
 .comment       0x00000000       0x52 build/default/production/_ext/1954962658/DHCP.o
 .comment       0x00000000       0x52 build/default/production/_ext/1954962658/DHCPs.o
 .comment       0x00000000       0x52 build/default/production/_ext/1954962658/DNS.o
 .comment       0x00000000       0x52 build/default/production/_ext/1954962658/DNSs.o
 .comment       0x00000000       0x52 build/default/production/_ext/1954962658/Delay.o
 .comment       0x00000000       0x52 build/default/production/_ext/1954962658/DynDNS.o
 .comment       0x00000000       0x52 build/default/production/_ext/1954962658/FTP.o
 .comment       0x00000000       0x52 build/default/production/_ext/1954962658/HTTP2.o
 .comment       0x00000000       0x52 build/default/production/_ext/1954962658/Hashes.o
 .comment       0x00000000       0x52 build/default/production/_ext/1954962658/Helpers.o
 .comment       0x00000000       0x52 build/default/production/_ext/1954962658/ICMP.o
 .comment       0x00000000       0x52 build/default/production/_ext/1954962658/IP.o
 .comment       0x00000000       0x52 build/default/production/_ext/1954962658/LCDBlocking.o
 .comment       0x00000000       0x52 build/default/production/_ext/1954962658/MPFS2.o
 .comment       0x00000000       0x52 build/default/production/_ext/1954962658/NBNS.o
 .comment       0x00000000       0x52 build/default/production/_ext/1954962658/RSA.o
 .comment       0x00000000       0x52 build/default/production/_ext/1954962658/Random.o
 .comment       0x00000000       0x52 build/default/production/_ext/1954962658/Reboot.o
 .comment       0x00000000       0x52 build/default/production/_ext/1954962658/SMTP.o
 .comment       0x00000000       0x52 build/default/production/_ext/1954962658/SNMP.o
 .comment       0x00000000       0x52 build/default/production/_ext/1954962658/SNTP.o
 .comment       0x00000000       0x52 build/default/production/_ext/1954962658/SPIEEPROM.o
 .comment       0x00000000       0x52 build/default/production/_ext/1954962658/SPIFlash.o
 .comment       0x00000000       0x52 build/default/production/_ext/1954962658/SPIRAM.o
 .comment       0x00000000       0x52 build/default/production/_ext/1954962658/SSL.o
 .comment       0x00000000       0x52 build/default/production/_ext/1954962658/StackTsk.o
 .comment       0x00000000       0x52 build/default/production/_ext/1954962658/TCP.o
 .comment       0x00000000       0x52 build/default/production/_ext/1954962658/TCPPerformanceTest.o
 .comment       0x00000000       0x52 build/default/production/_ext/1954962658/TFTPc.o
 .comment       0x00000000       0x52 build/default/production/_ext/1954962658/Telnet.o
 .comment       0x00000000       0x52 build/default/production/_ext/1954962658/Tick.o
 .comment       0x00000000       0x52 build/default/production/_ext/1954962658/UART.o
 .comment       0x00000000       0x52 build/default/production/_ext/1954962658/UART2TCPBridge.o
 .comment       0x00000000       0x52 build/default/production/_ext/1954962658/UDP.o
 .comment       0x00000000       0x52 build/default/production/_ext/1954962658/UDPPerformanceTest.o
 .comment       0x00000000       0x52 build/default/production/_ext/1954962658/ZeroconfHelper.o
 .comment       0x00000000       0x52 build/default/production/_ext/1954962658/ZeroconfLinkLocal.o
 .comment       0x00000000       0x52 build/default/production/_ext/1954962658/ZeroconfMulticastDNS.o
 .comment       0x00000000       0x52 build/default/production/_ext/243675038/WFConnectionAlgorithm.o
 .comment       0x00000000       0x52 build/default/production/_ext/243675038/WFConnectionManager.o
 .comment       0x00000000       0x52 build/default/production/_ext/243675038/WFConnectionProfile.o
 .comment       0x00000000       0x52 build/default/production/_ext/243675038/WFConsole.o
 .comment       0x00000000       0x52 build/default/production/_ext/243675038/WFConsoleIfconfig.o
 .comment       0x00000000       0x52 build/default/production/_ext/243675038/WFConsoleIwconfig.o
 .comment       0x00000000       0x52 build/default/production/_ext/243675038/WFConsoleIwpriv.o
 .comment       0x00000000       0x52 build/default/production/_ext/243675038/WFConsoleMsgHandler.o
 .comment       0x00000000       0x52 build/default/production/_ext/243675038/WFConsoleMsgs.o
 .comment       0x00000000       0x52 build/default/production/_ext/243675038/WFDriverCom.o
 .comment       0x00000000       0x52 build/default/production/_ext/243675038/WFDriverRaw.o
 .comment       0x00000000       0x52 build/default/production/_ext/243675038/WFEasyConfig.o
 .comment       0x00000000       0x52 build/default/production/_ext/243675038/WFEventHandler.o
 .comment       0x00000000       0x52 build/default/production/_ext/243675038/WFInit.o
 .comment       0x00000000       0x52 build/default/production/_ext/243675038/WFMac.o
 .comment       0x00000000       0x52 build/default/production/_ext/243675038/WFMgmtMsg.o
 .comment       0x00000000       0x52 build/default/production/_ext/243675038/WFParamMsg.o
 .comment       0x00000000       0x52 build/default/production/_ext/243675038/WFPowerSave.o
 .comment       0x00000000       0x52 build/default/production/_ext/243675038/WFScan.o
 .comment       0x00000000       0x52 build/default/production/_ext/243675038/WFTxPower.o
 .comment       0x00000000       0x52 build/default/production/_ext/243675038/WF_Eint.o
 .comment       0x00000000       0x52 build/default/production/_ext/243675038/WF_Spi.o
 .comment       0x00000000       0x52 build/default/production/_ext/1472/CustomHTTPApp.o
 .comment       0x00000000       0x52 build/default/production/_ext/1472/MPFSImg2.o
 .comment       0x00000000       0x52 build/default/production/_ext/1472/MainDemo.o
 .comment       0x00000000       0x52 build/default/production/_ext/1472/WF_Config.o
 .comment       0x00000000       0x52 build/default/production/_ext/1472/IperfApp.o
 .comment       0x00000000       0x52 c:/program files (x86)/microchip/mplab c32 suite/bin/../lib/gcc/pic32mx/4.5.1\libgcc.a(_udivdi3.o)
 .comment       0x00000051       0x55 c:/program files (x86)/microchip/mplab c32 suite/bin/../lib/gcc/pic32mx/4.5.1/../../../../pic32mx/lib\libc.a(memcmp.o)
                                 0x56 (size before relaxing)
 .comment       0x000000a6       0x55 c:/program files (x86)/microchip/mplab c32 suite/bin/../lib/gcc/pic32mx/4.5.1/../../../../pic32mx/lib\libc.a(memset.o)
                                 0x56 (size before relaxing)
 .comment       0x000000fb       0x55 c:/program files (x86)/microchip/mplab c32 suite/bin/../lib/gcc/pic32mx/4.5.1/../../../../pic32mx/lib\libc.a(strcmp.o)
                                 0x56 (size before relaxing)
 .comment       0x00000150       0x55 c:/program files (x86)/microchip/mplab c32 suite/bin/../lib/gcc/pic32mx/4.5.1/../../../../pic32mx/lib\libc.a(strlen.o)
                                 0x56 (size before relaxing)
 .comment       0x00000000       0x52 c:/program files (x86)/microchip/mplab c32 suite/bin/../lib/gcc/pic32mx/4.5.1/../../../../pic32mx/lib\libc.a(_iob.o)
 .comment       0x00000000       0x52 c:/program files (x86)/microchip/mplab c32 suite/bin/../lib/gcc/pic32mx/4.5.1/../../../../pic32mx/lib\libc.a(fwrite.o)
 .comment       0x00000000       0x52 c:/program files (x86)/microchip/mplab c32 suite/bin/../lib/gcc/pic32mx/4.5.1/../../../../pic32mx/lib\libc.a(atol.o)
 .comment       0x000001a5       0x4e c:/program files (x86)/microchip/mplab c32 suite/bin/../lib/gcc/pic32mx/4.5.1/../../../../pic32mx/lib\libc.a(ctype.o)
                                 0xa0 (size before relaxing)
 .comment       0x00000000       0x52 c:/program files (x86)/microchip/mplab c32 suite/bin/../lib/gcc/pic32mx/4.5.1/../../../../pic32mx/lib\libc.a(puts.o)
 .comment       0x00000000       0x52 c:/program files (x86)/microchip/mplab c32 suite/bin/../lib/gcc/pic32mx/4.5.1/../../../../pic32mx/lib\libc.a(printf_cdnopsuxX.eo)
 .comment       0x00000000       0x52 c:/program files (x86)/microchip/mplab c32 suite/bin/../lib/gcc/pic32mx/4.5.1/../../../../pic32mx/lib\libc.a(sprintf_cdnopsuxX.eo)
 .comment       0x00000000       0x52 c:/program files (x86)/microchip/mplab c32 suite/bin/../lib/gcc/pic32mx/4.5.1/../../../../pic32mx/lib\libc.a(default-bootstrap-exception-handler.o)
 .comment       0x00000000       0x52 c:/program files (x86)/microchip/mplab c32 suite/bin/../lib/gcc/pic32mx/4.5.1/../../../../pic32mx/lib\libc.a(default-on-reset.o)
 .comment       0x00000000       0x52 c:/program files (x86)/microchip/mplab c32 suite/bin/../lib/gcc/pic32mx/4.5.1/../../../../pic32mx/lib\libc.a(default-on-bootstrap.o)
 .comment       0x00000000       0x52 c:/program files (x86)/microchip/mplab c32 suite/bin/../lib/gcc/pic32mx/4.5.1/../../../../pic32mx/lib\libc.a(fflush.o)
 .comment       0x00000000       0x52 c:/program files (x86)/microchip/mplab c32 suite/bin/../lib/gcc/pic32mx/4.5.1/../../../../pic32mx/lib\libc.a(_fputc_simple.o)
 .comment       0x00000000       0x52 c:/program files (x86)/microchip/mplab c32 suite/bin/../lib/gcc/pic32mx/4.5.1/../../../../pic32mx/lib\libc.a(fseek.o)
 .comment       0x00000000       0x52 c:/program files (x86)/microchip/mplab c32 suite/bin/../lib/gcc/pic32mx/4.5.1/../../../../pic32mx/lib\libc.a(doprnt_cdnopsuxX.eo)
 .comment       0x00000000       0x52 c:/program files (x86)/microchip/mplab c32 suite/bin/../lib/gcc/pic32mx/4.5.1/../../../../pic32mx/lib\libc.a(write.o)
 .comment       0x00000000       0x52 c:/program files (x86)/microchip/mplab c32 suite/bin/../lib/gcc/pic32mx/4.5.1/../../../../pic32mx/lib\libc.a(lseek.o)
 .comment       0x00000000       0x52 c:/program files (x86)/microchip/mplab c32 suite/bin/../lib/gcc/pic32mx/4.5.1/../../../../pic32mx/lib\libc.a(_flsbuf_simple.o)
 .comment       0x000001f3       0x51 c:/program files (x86)/microchip/mplab c32 suite/bin/../lib/gcc/pic32mx/4.5.1/../../../../pic32mx/lib\libmchp_peripheral_32MX695F512H.a(soft_reset_lib.o)
                                 0x52 (size before relaxing)
 .comment       0x00000000       0x52 c:/program files (x86)/microchip/mplab c32 suite/bin/../lib/gcc/pic32mx/4.5.1/../../../../pic32mx/lib\libmchp_peripheral_32MX695F512H.a(pcache.o)
 .comment       0x00000000       0x52 c:/program files (x86)/microchip/mplab c32 suite/bin/../lib/gcc/pic32mx/4.5.1/../../../../pic32mx/lib\libmchp_peripheral_32MX695F512H.a(int_disable_interrupts_lib.o)
 .comment       0x00000000       0x52 c:/program files (x86)/microchip/mplab c32 suite/bin/../lib/gcc/pic32mx/4.5.1/../../../../pic32mx/lib\libmchp_peripheral_32MX695F512H.a(int_restore_interrupts_lib.o)
 .comment       0x00000000       0x52 c:/program files (x86)/microchip/mplab c32 suite/bin/../lib/gcc/pic32mx/4.5.1/../../../../pic32mx/lib\libmchp_peripheral_32MX695F512H.a(int_enable_mv_int_lib.o)
 .comment       0x00000000       0x52 c:/program files (x86)/microchip/mplab c32 suite/bin/../lib/gcc/pic32mx/4.5.1/../../../../pic32mx/lib\libmchp_peripheral_32MX695F512H.a(uart_lib.o)
 .comment       0x00000000       0x52 c:/program files (x86)/microchip/mplab c32 suite/bin/../lib/gcc/pic32mx/4.5.1/../../../../pic32mx/lib\libmchp_peripheral_32MX695F512H.a(int_enable_interrupts_lib.o)
 .comment       0x00000000       0x52 c:/program files (x86)/microchip/mplab c32 suite/bin/../lib/gcc/pic32mx/4.5.1\libgcc.a(_umoddi3.o)

.debug
 *(.debug)

.line
 *(.line)

.debug_srcinfo
 *(.debug_srcinfo)

.debug_sfnames
 *(.debug_sfnames)

.debug_aranges  0x00000000      0x870
 *(.debug_aranges)
 .debug_aranges
                0x00000000       0x20 build/default/production/_ext/1954962658/ARP.o
 .debug_aranges
                0x00000020       0x20 build/default/production/_ext/1954962658/Announce.o
 .debug_aranges
                0x00000040       0x20 build/default/production/_ext/1954962658/DHCP.o
 .debug_aranges
                0x00000060       0x20 build/default/production/_ext/1954962658/DHCPs.o
 .debug_aranges
                0x00000080       0x20 build/default/production/_ext/1954962658/DNSs.o
 .debug_aranges
                0x000000a0       0x20 build/default/production/_ext/1954962658/Delay.o
 .debug_aranges
                0x000000c0       0x20 build/default/production/_ext/1954962658/HTTP2.o
 .debug_aranges
                0x000000e0       0x20 build/default/production/_ext/1954962658/Helpers.o
 .debug_aranges
                0x00000100       0x20 build/default/production/_ext/1954962658/ICMP.o
 .debug_aranges
                0x00000120       0x20 build/default/production/_ext/1954962658/IP.o
 .debug_aranges
                0x00000140       0x20 build/default/production/_ext/1954962658/MPFS2.o
 .debug_aranges
                0x00000160       0x20 build/default/production/_ext/1954962658/NBNS.o
 .debug_aranges
                0x00000180       0x20 build/default/production/_ext/1954962658/Reboot.o
 .debug_aranges
                0x000001a0       0x20 build/default/production/_ext/1954962658/StackTsk.o
 .debug_aranges
                0x000001c0       0x20 build/default/production/_ext/1954962658/TCP.o
 .debug_aranges
                0x000001e0       0x20 build/default/production/_ext/1954962658/Tick.o
 .debug_aranges
                0x00000200       0x20 build/default/production/_ext/1954962658/UDP.o
 .debug_aranges
                0x00000220       0x20 build/default/production/_ext/1954962658/ZeroconfHelper.o
 .debug_aranges
                0x00000240       0x20 build/default/production/_ext/1954962658/ZeroconfLinkLocal.o
 .debug_aranges
                0x00000260       0x20 build/default/production/_ext/1954962658/ZeroconfMulticastDNS.o
 .debug_aranges
                0x00000280       0x20 build/default/production/_ext/243675038/WFConnectionAlgorithm.o
 .debug_aranges
                0x000002a0       0x20 build/default/production/_ext/243675038/WFConnectionManager.o
 .debug_aranges
                0x000002c0       0x20 build/default/production/_ext/243675038/WFConnectionProfile.o
 .debug_aranges
                0x000002e0       0x20 build/default/production/_ext/243675038/WFConsoleMsgHandler.o
 .debug_aranges
                0x00000300       0x20 build/default/production/_ext/243675038/WFConsoleMsgs.o
 .debug_aranges
                0x00000320       0x20 build/default/production/_ext/243675038/WFDriverCom.o
 .debug_aranges
                0x00000340       0x20 build/default/production/_ext/243675038/WFDriverRaw.o
 .debug_aranges
                0x00000360       0x20 build/default/production/_ext/243675038/WFEasyConfig.o
 .debug_aranges
                0x00000380       0x20 build/default/production/_ext/243675038/WFEventHandler.o
 .debug_aranges
                0x000003a0       0x20 build/default/production/_ext/243675038/WFInit.o
 .debug_aranges
                0x000003c0       0x20 build/default/production/_ext/243675038/WFMac.o
 .debug_aranges
                0x000003e0       0x20 build/default/production/_ext/243675038/WFMgmtMsg.o
 .debug_aranges
                0x00000400       0x20 build/default/production/_ext/243675038/WFParamMsg.o
 .debug_aranges
                0x00000420       0x20 build/default/production/_ext/243675038/WFPowerSave.o
 .debug_aranges
                0x00000440       0x20 build/default/production/_ext/243675038/WFScan.o
 .debug_aranges
                0x00000460       0x20 build/default/production/_ext/243675038/WFTxPower.o
 .debug_aranges
                0x00000480       0x20 build/default/production/_ext/243675038/WF_Eint.o
 .debug_aranges
                0x000004a0       0x20 build/default/production/_ext/243675038/WF_Spi.o
 .debug_aranges
                0x000004c0       0x20 build/default/production/_ext/1472/CustomHTTPApp.o
 .debug_aranges
                0x000004e0       0x20 build/default/production/_ext/1472/MainDemo.o
 .debug_aranges
                0x00000500       0x20 build/default/production/_ext/1472/WF_Config.o
 .debug_aranges
                0x00000520       0x20 c:/program files (x86)/microchip/mplab c32 suite/bin/../lib/gcc/pic32mx/4.5.1\libgcc.a(_udivdi3.o)
 .debug_aranges
                0x00000540       0x20 c:/program files (x86)/microchip/mplab c32 suite/bin/../lib/gcc/pic32mx/4.5.1/../../../../pic32mx/lib\libc.a(fwrite.o)
 .debug_aranges
                0x00000560       0x20 c:/program files (x86)/microchip/mplab c32 suite/bin/../lib/gcc/pic32mx/4.5.1/../../../../pic32mx/lib\libc.a(atol.o)
 .debug_aranges
                0x00000580       0x28 c:/program files (x86)/microchip/mplab c32 suite/bin/../lib/gcc/pic32mx/4.5.1/../../../../pic32mx/lib\libc.a(puts.o)
 .debug_aranges
                0x000005a8       0x20 c:/program files (x86)/microchip/mplab c32 suite/bin/../lib/gcc/pic32mx/4.5.1/../../../../pic32mx/lib\libc.a(printf_cdnopsuxX.eo)
 .debug_aranges
                0x000005c8       0x20 c:/program files (x86)/microchip/mplab c32 suite/bin/../lib/gcc/pic32mx/4.5.1/../../../../pic32mx/lib\libc.a(sprintf_cdnopsuxX.eo)
 .debug_aranges
                0x000005e8       0x20 c:/program files (x86)/microchip/mplab c32 suite/bin/../lib/gcc/pic32mx/4.5.1/../../../../pic32mx/lib\libc.a(default-bootstrap-exception-handler.o)
 .debug_aranges
                0x00000608       0x20 c:/program files (x86)/microchip/mplab c32 suite/bin/../lib/gcc/pic32mx/4.5.1/../../../../pic32mx/lib\libc.a(default-on-reset.o)
 .debug_aranges
                0x00000628       0x20 c:/program files (x86)/microchip/mplab c32 suite/bin/../lib/gcc/pic32mx/4.5.1/../../../../pic32mx/lib\libc.a(default-on-bootstrap.o)
 .debug_aranges
                0x00000648       0x20 c:/program files (x86)/microchip/mplab c32 suite/bin/../lib/gcc/pic32mx/4.5.1/../../../../pic32mx/lib\libc.a(fflush.o)
 .debug_aranges
                0x00000668       0x20 c:/program files (x86)/microchip/mplab c32 suite/bin/../lib/gcc/pic32mx/4.5.1/../../../../pic32mx/lib\libc.a(_fputc_simple.o)
 .debug_aranges
                0x00000688       0x28 c:/program files (x86)/microchip/mplab c32 suite/bin/../lib/gcc/pic32mx/4.5.1/../../../../pic32mx/lib\libc.a(fseek.o)
 .debug_aranges
                0x000006b0       0x20 c:/program files (x86)/microchip/mplab c32 suite/bin/../lib/gcc/pic32mx/4.5.1/../../../../pic32mx/lib\libc.a(doprnt_cdnopsuxX.eo)
 .debug_aranges
                0x000006d0       0x20 c:/program files (x86)/microchip/mplab c32 suite/bin/../lib/gcc/pic32mx/4.5.1/../../../../pic32mx/lib\libc.a(write.o)
 .debug_aranges
                0x000006f0       0x20 c:/program files (x86)/microchip/mplab c32 suite/bin/../lib/gcc/pic32mx/4.5.1/../../../../pic32mx/lib\libc.a(lseek.o)
 .debug_aranges
                0x00000710       0x20 c:/program files (x86)/microchip/mplab c32 suite/bin/../lib/gcc/pic32mx/4.5.1/../../../../pic32mx/lib\libc.a(_flsbuf_simple.o)
 .debug_aranges
                0x00000730       0x20 c:/program files (x86)/microchip/mplab c32 suite/bin/../lib/gcc/pic32mx/4.5.1/../../../../pic32mx/lib\libmchp_peripheral_32MX695F512H.a(soft_reset_lib.o)
 .debug_aranges
                0x00000750       0x28 c:/program files (x86)/microchip/mplab c32 suite/bin/../lib/gcc/pic32mx/4.5.1/../../../../pic32mx/lib\libmchp_peripheral_32MX695F512H.a(pcache.o)
 .debug_aranges
                0x00000778       0x20 c:/program files (x86)/microchip/mplab c32 suite/bin/../lib/gcc/pic32mx/4.5.1/../../../../pic32mx/lib\libmchp_peripheral_32MX695F512H.a(int_disable_interrupts_lib.o)
 .debug_aranges
                0x00000798       0x20 c:/program files (x86)/microchip/mplab c32 suite/bin/../lib/gcc/pic32mx/4.5.1/../../../../pic32mx/lib\libmchp_peripheral_32MX695F512H.a(int_restore_interrupts_lib.o)
 .debug_aranges
                0x000007b8       0x20 c:/program files (x86)/microchip/mplab c32 suite/bin/../lib/gcc/pic32mx/4.5.1/../../../../pic32mx/lib\libmchp_peripheral_32MX695F512H.a(int_enable_mv_int_lib.o)
 .debug_aranges
                0x000007d8       0x58 c:/program files (x86)/microchip/mplab c32 suite/bin/../lib/gcc/pic32mx/4.5.1/../../../../pic32mx/lib\libmchp_peripheral_32MX695F512H.a(uart_lib.o)
 .debug_aranges
                0x00000830       0x20 c:/program files (x86)/microchip/mplab c32 suite/bin/../lib/gcc/pic32mx/4.5.1/../../../../pic32mx/lib\libmchp_peripheral_32MX695F512H.a(int_enable_interrupts_lib.o)
 .debug_aranges
                0x00000850       0x20 c:/program files (x86)/microchip/mplab c32 suite/bin/../lib/gcc/pic32mx/4.5.1\libgcc.a(_umoddi3.o)

.debug_pubnames
                0x00000000     0x23a9
 *(.debug_pubnames)
 .debug_pubnames
                0x00000000       0xb7 build/default/production/_ext/1954962658/ARP.o
 .debug_pubnames
                0x000000b7       0x33 build/default/production/_ext/1954962658/Announce.o
 .debug_pubnames
                0x000000ea       0xb9 build/default/production/_ext/1954962658/DHCP.o
 .debug_pubnames
                0x000001a3       0x3c build/default/production/_ext/1954962658/DHCPs.o
 .debug_pubnames
                0x000001df       0x24 build/default/production/_ext/1954962658/DNSs.o
 .debug_pubnames
                0x00000203       0x2c build/default/production/_ext/1954962658/Delay.o
 .debug_pubnames
                0x0000022f       0xcf build/default/production/_ext/1954962658/HTTP2.o
 .debug_pubnames
                0x000002fe      0x115 build/default/production/_ext/1954962658/Helpers.o
 .debug_pubnames
                0x00000413       0x22 build/default/production/_ext/1954962658/ICMP.o
 .debug_pubnames
                0x00000435       0x44 build/default/production/_ext/1954962658/IP.o
 .debug_pubnames
                0x00000479      0x140 build/default/production/_ext/1954962658/MPFS2.o
 .debug_pubnames
                0x000005b9       0x1f build/default/production/_ext/1954962658/NBNS.o
 .debug_pubnames
                0x000005d8       0x21 build/default/production/_ext/1954962658/Reboot.o
 .debug_pubnames
                0x000005f9       0x53 build/default/production/_ext/1954962658/StackTsk.o
 .debug_pubnames
                0x0000064c      0x1ba build/default/production/_ext/1954962658/TCP.o
 .debug_pubnames
                0x00000806       0x7e build/default/production/_ext/1954962658/Tick.o
 .debug_pubnames
                0x00000884      0x155 build/default/production/_ext/1954962658/UDP.o
 .debug_pubnames
                0x000009d9       0x3b build/default/production/_ext/1954962658/ZeroconfHelper.o
 .debug_pubnames
                0x00000a14       0xc6 build/default/production/_ext/1954962658/ZeroconfLinkLocal.o
 .debug_pubnames
                0x00000ada      0x160 build/default/production/_ext/1954962658/ZeroconfMulticastDNS.o
 .debug_pubnames
                0x00000c3a      0x34f build/default/production/_ext/243675038/WFConnectionAlgorithm.o
 .debug_pubnames
                0x00000f89       0x83 build/default/production/_ext/243675038/WFConnectionManager.o
 .debug_pubnames
                0x0000100c      0x17e build/default/production/_ext/243675038/WFConnectionProfile.o
 .debug_pubnames
                0x0000118a       0x2f build/default/production/_ext/243675038/WFConsoleMsgHandler.o
 .debug_pubnames
                0x000011b9       0xd5 build/default/production/_ext/243675038/WFConsoleMsgs.o
 .debug_pubnames
                0x0000128e       0xd7 build/default/production/_ext/243675038/WFDriverCom.o
 .debug_pubnames
                0x00001365      0x1c8 build/default/production/_ext/243675038/WFDriverRaw.o
 .debug_pubnames
                0x0000152d       0xac build/default/production/_ext/243675038/WFEasyConfig.o
 .debug_pubnames
                0x000015d9       0x2f build/default/production/_ext/243675038/WFEventHandler.o
 .debug_pubnames
                0x00001608       0x1e build/default/production/_ext/243675038/WFInit.o
 .debug_pubnames
                0x00001626      0x228 build/default/production/_ext/243675038/WFMac.o
 .debug_pubnames
                0x0000184e       0xc9 build/default/production/_ext/243675038/WFMgmtMsg.o
 .debug_pubnames
                0x00001917      0x184 build/default/production/_ext/243675038/WFParamMsg.o
 .debug_pubnames
                0x00001a9b       0xc6 build/default/production/_ext/243675038/WFPowerSave.o
 .debug_pubnames
                0x00001b61       0x33 build/default/production/_ext/243675038/WFScan.o
 .debug_pubnames
                0x00001b94       0x5e build/default/production/_ext/243675038/WFTxPower.o
 .debug_pubnames
                0x00001bf2       0x83 build/default/production/_ext/243675038/WF_Eint.o
 .debug_pubnames
                0x00001c75       0x66 build/default/production/_ext/243675038/WF_Spi.o
 .debug_pubnames
                0x00001cdb      0x17f build/default/production/_ext/1472/CustomHTTPApp.o
 .debug_pubnames
                0x00001e5a       0x21 build/default/production/_ext/1472/MPFSImg2.o
 .debug_pubnames
                0x00001e7b       0xbd build/default/production/_ext/1472/MainDemo.o
 .debug_pubnames
                0x00001f38       0x6b build/default/production/_ext/1472/WF_Config.o
 .debug_pubnames
                0x00001fa3       0x20 c:/program files (x86)/microchip/mplab c32 suite/bin/../lib/gcc/pic32mx/4.5.1\libgcc.a(_udivdi3.o)
 .debug_pubnames
                0x00001fc3       0x1d c:/program files (x86)/microchip/mplab c32 suite/bin/../lib/gcc/pic32mx/4.5.1/../../../../pic32mx/lib\libc.a(fwrite.o)
 .debug_pubnames
                0x00001fe0       0x1b c:/program files (x86)/microchip/mplab c32 suite/bin/../lib/gcc/pic32mx/4.5.1/../../../../pic32mx/lib\libc.a(atol.o)
 .debug_pubnames
                0x00001ffb       0x25 c:/program files (x86)/microchip/mplab c32 suite/bin/../lib/gcc/pic32mx/4.5.1/../../../../pic32mx/lib\libc.a(puts.o)
 .debug_pubnames
                0x00002020       0x28 c:/program files (x86)/microchip/mplab c32 suite/bin/../lib/gcc/pic32mx/4.5.1/../../../../pic32mx/lib\libc.a(printf_cdnopsuxX.eo)
 .debug_pubnames
                0x00002048       0x29 c:/program files (x86)/microchip/mplab c32 suite/bin/../lib/gcc/pic32mx/4.5.1/../../../../pic32mx/lib\libc.a(sprintf_cdnopsuxX.eo)
 .debug_pubnames
                0x00002071       0x33 c:/program files (x86)/microchip/mplab c32 suite/bin/../lib/gcc/pic32mx/4.5.1/../../../../pic32mx/lib\libc.a(default-bootstrap-exception-handler.o)
 .debug_pubnames
                0x000020a4       0x20 c:/program files (x86)/microchip/mplab c32 suite/bin/../lib/gcc/pic32mx/4.5.1/../../../../pic32mx/lib\libc.a(default-on-reset.o)
 .debug_pubnames
                0x000020c4       0x24 c:/program files (x86)/microchip/mplab c32 suite/bin/../lib/gcc/pic32mx/4.5.1/../../../../pic32mx/lib\libc.a(default-on-bootstrap.o)
 .debug_pubnames
                0x000020e8       0x1d c:/program files (x86)/microchip/mplab c32 suite/bin/../lib/gcc/pic32mx/4.5.1/../../../../pic32mx/lib\libc.a(fflush.o)
 .debug_pubnames
                0x00002105       0x1c c:/program files (x86)/microchip/mplab c32 suite/bin/../lib/gcc/pic32mx/4.5.1/../../../../pic32mx/lib\libc.a(_fputc_simple.o)
 .debug_pubnames
                0x00002121       0x26 c:/program files (x86)/microchip/mplab c32 suite/bin/../lib/gcc/pic32mx/4.5.1/../../../../pic32mx/lib\libc.a(fseek.o)
 .debug_pubnames
                0x00002147       0x2a c:/program files (x86)/microchip/mplab c32 suite/bin/../lib/gcc/pic32mx/4.5.1/../../../../pic32mx/lib\libc.a(doprnt_cdnopsuxX.eo)
 .debug_pubnames
                0x00002171       0x1c c:/program files (x86)/microchip/mplab c32 suite/bin/../lib/gcc/pic32mx/4.5.1/../../../../pic32mx/lib\libc.a(write.o)
 .debug_pubnames
                0x0000218d       0x1c c:/program files (x86)/microchip/mplab c32 suite/bin/../lib/gcc/pic32mx/4.5.1/../../../../pic32mx/lib\libc.a(lseek.o)
 .debug_pubnames
                0x000021a9       0x1e c:/program files (x86)/microchip/mplab c32 suite/bin/../lib/gcc/pic32mx/4.5.1/../../../../pic32mx/lib\libc.a(_flsbuf_simple.o)
 .debug_pubnames
                0x000021c7       0x20 c:/program files (x86)/microchip/mplab c32 suite/bin/../lib/gcc/pic32mx/4.5.1/../../../../pic32mx/lib\libmchp_peripheral_32MX695F512H.a(soft_reset_lib.o)
 .debug_pubnames
                0x000021e7       0x3b c:/program files (x86)/microchip/mplab c32 suite/bin/../lib/gcc/pic32mx/4.5.1/../../../../pic32mx/lib\libmchp_peripheral_32MX695F512H.a(pcache.o)
 .debug_pubnames
                0x00002222       0x2b c:/program files (x86)/microchip/mplab c32 suite/bin/../lib/gcc/pic32mx/4.5.1/../../../../pic32mx/lib\libmchp_peripheral_32MX695F512H.a(int_disable_interrupts_lib.o)
 .debug_pubnames
                0x0000224d       0x2b c:/program files (x86)/microchip/mplab c32 suite/bin/../lib/gcc/pic32mx/4.5.1/../../../../pic32mx/lib\libmchp_peripheral_32MX695F512H.a(int_restore_interrupts_lib.o)
 .debug_pubnames
                0x00002278       0x36 c:/program files (x86)/microchip/mplab c32 suite/bin/../lib/gcc/pic32mx/4.5.1/../../../../pic32mx/lib\libmchp_peripheral_32MX695F512H.a(int_enable_mv_int_lib.o)
 .debug_pubnames
                0x000022ae       0xb1 c:/program files (x86)/microchip/mplab c32 suite/bin/../lib/gcc/pic32mx/4.5.1/../../../../pic32mx/lib\libmchp_peripheral_32MX695F512H.a(uart_lib.o)
 .debug_pubnames
                0x0000235f       0x2a c:/program files (x86)/microchip/mplab c32 suite/bin/../lib/gcc/pic32mx/4.5.1/../../../../pic32mx/lib\libmchp_peripheral_32MX695F512H.a(int_enable_interrupts_lib.o)
 .debug_pubnames
                0x00002389       0x20 c:/program files (x86)/microchip/mplab c32 suite/bin/../lib/gcc/pic32mx/4.5.1\libgcc.a(_umoddi3.o)

.debug_info     0x00000000    0x7016b
 *(.debug_info .gnu.linkonce.wi.*)
 .debug_info    0x00000000     0x1194 build/default/production/_ext/1954962658/ARCFOUR.o
 .debug_info    0x00001194     0x1dd2 build/default/production/_ext/1954962658/ARP.o
 .debug_info    0x00002f66     0x1b7c build/default/production/_ext/1954962658/Announce.o
 .debug_info    0x00004ae2     0x1193 build/default/production/_ext/1954962658/AutoIP.o
 .debug_info    0x00005c75     0x1198 build/default/production/_ext/1954962658/BerkeleyAPI.o
 .debug_info    0x00006e0d     0x1193 build/default/production/_ext/1954962658/BigInt.o
 .debug_info    0x00007fa0     0x2112 build/default/production/_ext/1954962658/DHCP.o
 .debug_info    0x0000a0b2     0x1dc8 build/default/production/_ext/1954962658/DHCPs.o
 .debug_info    0x0000be7a     0x1190 build/default/production/_ext/1954962658/DNS.o
 .debug_info    0x0000d00a     0x1989 build/default/production/_ext/1954962658/DNSs.o
 .debug_info    0x0000e993     0x1227 build/default/production/_ext/1954962658/Delay.o
 .debug_info    0x0000fbba     0x1193 build/default/production/_ext/1954962658/DynDNS.o
 .debug_info    0x00010d4d     0x1190 build/default/production/_ext/1954962658/FTP.o
 .debug_info    0x00011edd     0x22a2 build/default/production/_ext/1954962658/HTTP2.o
 .debug_info    0x0001417f     0x1193 build/default/production/_ext/1954962658/Hashes.o
 .debug_info    0x00015312     0x24a5 build/default/production/_ext/1954962658/Helpers.o
 .debug_info    0x000177b7     0x1787 build/default/production/_ext/1954962658/ICMP.o
 .debug_info    0x00018f3e     0x1bc9 build/default/production/_ext/1954962658/IP.o
 .debug_info    0x0001ab07     0x1198 build/default/production/_ext/1954962658/LCDBlocking.o
 .debug_info    0x0001bc9f     0x1949 build/default/production/_ext/1954962658/MPFS2.o
 .debug_info    0x0001d5e8     0x1cb3 build/default/production/_ext/1954962658/NBNS.o
 .debug_info    0x0001f29b     0x1190 build/default/production/_ext/1954962658/RSA.o
 .debug_info    0x0002042b     0x1193 build/default/production/_ext/1954962658/Random.o
 .debug_info    0x000215be     0x1a7a build/default/production/_ext/1954962658/Reboot.o
 .debug_info    0x00023038     0x1191 build/default/production/_ext/1954962658/SMTP.o
 .debug_info    0x000241c9     0x1191 build/default/production/_ext/1954962658/SNMP.o
 .debug_info    0x0002535a     0x1191 build/default/production/_ext/1954962658/SNTP.o
 .debug_info    0x000264eb     0x1196 build/default/production/_ext/1954962658/SPIEEPROM.o
 .debug_info    0x00027681     0x1195 build/default/production/_ext/1954962658/SPIFlash.o
 .debug_info    0x00028816     0x1193 build/default/production/_ext/1954962658/SPIRAM.o
 .debug_info    0x000299a9     0x1190 build/default/production/_ext/1954962658/SSL.o
 .debug_info    0x0002ab39     0x1a55 build/default/production/_ext/1954962658/StackTsk.o
 .debug_info    0x0002c58e     0x31c8 build/default/production/_ext/1954962658/TCP.o
 .debug_info    0x0002f756     0x119f build/default/production/_ext/1954962658/TCPPerformanceTest.o
 .debug_info    0x000308f5     0x1192 build/default/production/_ext/1954962658/TFTPc.o
 .debug_info    0x00031a87     0x1193 build/default/production/_ext/1954962658/Telnet.o
 .debug_info    0x00032c1a     0x1ad7 build/default/production/_ext/1954962658/Tick.o
 .debug_info    0x000346f1     0x1191 build/default/production/_ext/1954962658/UART.o
 .debug_info    0x00035882     0x119b build/default/production/_ext/1954962658/UART2TCPBridge.o
 .debug_info    0x00036a1d     0x21be build/default/production/_ext/1954962658/UDP.o
 .debug_info    0x00038bdb     0x119f build/default/production/_ext/1954962658/UDPPerformanceTest.o
 .debug_info    0x00039d7a     0x1259 build/default/production/_ext/1954962658/ZeroconfHelper.o
 .debug_info    0x0003afd3     0x1fc0 build/default/production/_ext/1954962658/ZeroconfLinkLocal.o
 .debug_info    0x0003cf93     0x3342 build/default/production/_ext/1954962658/ZeroconfMulticastDNS.o
 .debug_info    0x000402d5     0x25b1 build/default/production/_ext/243675038/WFConnectionAlgorithm.o
 .debug_info    0x00042886     0x17e2 build/default/production/_ext/243675038/WFConnectionManager.o
 .debug_info    0x00044068     0x2203 build/default/production/_ext/243675038/WFConnectionProfile.o
 .debug_info    0x0004626b     0x119b build/default/production/_ext/243675038/WFConsole.o
 .debug_info    0x00047406     0x11a3 build/default/production/_ext/243675038/WFConsoleIfconfig.o
 .debug_info    0x000485a9     0x11a3 build/default/production/_ext/243675038/WFConsoleIwconfig.o
 .debug_info    0x0004974c     0x11a1 build/default/production/_ext/243675038/WFConsoleIwpriv.o
 .debug_info    0x0004a8ed     0x12cf build/default/production/_ext/243675038/WFConsoleMsgHandler.o
 .debug_info    0x0004bbbc     0x15b3 build/default/production/_ext/243675038/WFConsoleMsgs.o
 .debug_info    0x0004d16f     0x1f51 build/default/production/_ext/243675038/WFDriverCom.o
 .debug_info    0x0004f0c0     0x1c67 build/default/production/_ext/243675038/WFDriverRaw.o
 .debug_info    0x00050d27     0x17a1 build/default/production/_ext/243675038/WFEasyConfig.o
 .debug_info    0x000524c8     0x1740 build/default/production/_ext/243675038/WFEventHandler.o
 .debug_info    0x00053c08     0x1b7c build/default/production/_ext/243675038/WFInit.o
 .debug_info    0x00055784     0x20f0 build/default/production/_ext/243675038/WFMac.o
 .debug_info    0x00057874     0x1810 build/default/production/_ext/243675038/WFMgmtMsg.o
 .debug_info    0x00059084     0x22c2 build/default/production/_ext/243675038/WFParamMsg.o
 .debug_info    0x0005b346     0x1b65 build/default/production/_ext/243675038/WFPowerSave.o
 .debug_info    0x0005ceab     0x1754 build/default/production/_ext/243675038/WFScan.o
 .debug_info    0x0005e5ff     0x18ac build/default/production/_ext/243675038/WFTxPower.o
 .debug_info    0x0005feab     0x2024 build/default/production/_ext/243675038/WF_Eint.o
 .debug_info    0x00061ecf     0x1bd0 build/default/production/_ext/243675038/WF_Spi.o
 .debug_info    0x00063a9f     0x2b29 build/default/production/_ext/1472/CustomHTTPApp.o
 .debug_info    0x000665c8     0x11b6 build/default/production/_ext/1472/MPFSImg2.o
 .debug_info    0x0006777e     0x343c build/default/production/_ext/1472/MainDemo.o
 .debug_info    0x0006abba     0x2195 build/default/production/_ext/1472/WF_Config.o
 .debug_info    0x0006cd4f     0x1179 build/default/production/_ext/1472/IperfApp.o
 .debug_info    0x0006dec8      0x783 c:/program files (x86)/microchip/mplab c32 suite/bin/../lib/gcc/pic32mx/4.5.1\libgcc.a(_udivdi3.o)
 .debug_info    0x0006e64b        0x0 c:/program files (x86)/microchip/mplab c32 suite/bin/../lib/gcc/pic32mx/4.5.1/../../../../pic32mx/lib\libc.a(_iob.o)
 .debug_info    0x0006e64b       0xd1 c:/program files (x86)/microchip/mplab c32 suite/bin/../lib/gcc/pic32mx/4.5.1/../../../../pic32mx/lib\libc.a(fwrite.o)
 .debug_info    0x0006e71c       0xcd c:/program files (x86)/microchip/mplab c32 suite/bin/../lib/gcc/pic32mx/4.5.1/../../../../pic32mx/lib\libc.a(atol.o)
 .debug_info    0x0006e7e9        0x0 c:/program files (x86)/microchip/mplab c32 suite/bin/../lib/gcc/pic32mx/4.5.1/../../../../pic32mx/lib\libc.a(ctype.o)
 .debug_info    0x0006e7e9       0xe1 c:/program files (x86)/microchip/mplab c32 suite/bin/../lib/gcc/pic32mx/4.5.1/../../../../pic32mx/lib\libc.a(puts.o)
 .debug_info    0x0006e8ca       0xe3 c:/program files (x86)/microchip/mplab c32 suite/bin/../lib/gcc/pic32mx/4.5.1/../../../../pic32mx/lib\libc.a(printf_cdnopsuxX.eo)
 .debug_info    0x0006e9ad       0xe5 c:/program files (x86)/microchip/mplab c32 suite/bin/../lib/gcc/pic32mx/4.5.1/../../../../pic32mx/lib\libc.a(sprintf_cdnopsuxX.eo)
 .debug_info    0x0006ea92      0x106 c:/program files (x86)/microchip/mplab c32 suite/bin/../lib/gcc/pic32mx/4.5.1/../../../../pic32mx/lib\libc.a(default-bootstrap-exception-handler.o)
 .debug_info    0x0006eb98       0xe0 c:/program files (x86)/microchip/mplab c32 suite/bin/../lib/gcc/pic32mx/4.5.1/../../../../pic32mx/lib\libc.a(default-on-reset.o)
 .debug_info    0x0006ec78       0xe8 c:/program files (x86)/microchip/mplab c32 suite/bin/../lib/gcc/pic32mx/4.5.1/../../../../pic32mx/lib\libc.a(default-on-bootstrap.o)
 .debug_info    0x0006ed60       0xd1 c:/program files (x86)/microchip/mplab c32 suite/bin/../lib/gcc/pic32mx/4.5.1/../../../../pic32mx/lib\libc.a(fflush.o)
 .debug_info    0x0006ee31       0xd6 c:/program files (x86)/microchip/mplab c32 suite/bin/../lib/gcc/pic32mx/4.5.1/../../../../pic32mx/lib\libc.a(_fputc_simple.o)
 .debug_info    0x0006ef07       0xee c:/program files (x86)/microchip/mplab c32 suite/bin/../lib/gcc/pic32mx/4.5.1/../../../../pic32mx/lib\libc.a(fseek.o)
 .debug_info    0x0006eff5       0xe6 c:/program files (x86)/microchip/mplab c32 suite/bin/../lib/gcc/pic32mx/4.5.1/../../../../pic32mx/lib\libc.a(doprnt_cdnopsuxX.eo)
 .debug_info    0x0006f0db       0xd1 c:/program files (x86)/microchip/mplab c32 suite/bin/../lib/gcc/pic32mx/4.5.1/../../../../pic32mx/lib\libc.a(write.o)
 .debug_info    0x0006f1ac       0xd1 c:/program files (x86)/microchip/mplab c32 suite/bin/../lib/gcc/pic32mx/4.5.1/../../../../pic32mx/lib\libc.a(lseek.o)
 .debug_info    0x0006f27d       0xd9 c:/program files (x86)/microchip/mplab c32 suite/bin/../lib/gcc/pic32mx/4.5.1/../../../../pic32mx/lib\libc.a(_flsbuf_simple.o)
 .debug_info    0x0006f356       0xc7 c:/program files (x86)/microchip/mplab c32 suite/bin/../lib/gcc/pic32mx/4.5.1/../../../../pic32mx/lib\libmchp_peripheral_32MX695F512H.a(soft_reset_lib.o)
 .debug_info    0x0006f41d       0xd4 c:/program files (x86)/microchip/mplab c32 suite/bin/../lib/gcc/pic32mx/4.5.1/../../../../pic32mx/lib\libmchp_peripheral_32MX695F512H.a(pcache.o)
 .debug_info    0x0006f4f1       0xcb c:/program files (x86)/microchip/mplab c32 suite/bin/../lib/gcc/pic32mx/4.5.1/../../../../pic32mx/lib\libmchp_peripheral_32MX695F512H.a(int_disable_interrupts_lib.o)
 .debug_info    0x0006f5bc       0xcb c:/program files (x86)/microchip/mplab c32 suite/bin/../lib/gcc/pic32mx/4.5.1/../../../../pic32mx/lib\libmchp_peripheral_32MX695F512H.a(int_restore_interrupts_lib.o)
 .debug_info    0x0006f687       0xd1 c:/program files (x86)/microchip/mplab c32 suite/bin/../lib/gcc/pic32mx/4.5.1/../../../../pic32mx/lib\libmchp_peripheral_32MX695F512H.a(int_enable_mv_int_lib.o)
 .debug_info    0x0006f758      0x18a c:/program files (x86)/microchip/mplab c32 suite/bin/../lib/gcc/pic32mx/4.5.1/../../../../pic32mx/lib\libmchp_peripheral_32MX695F512H.a(uart_lib.o)
 .debug_info    0x0006f8e2       0xc9 c:/program files (x86)/microchip/mplab c32 suite/bin/../lib/gcc/pic32mx/4.5.1/../../../../pic32mx/lib\libmchp_peripheral_32MX695F512H.a(int_enable_interrupts_lib.o)
 .debug_info    0x0006f9ab      0x7c0 c:/program files (x86)/microchip/mplab c32 suite/bin/../lib/gcc/pic32mx/4.5.1\libgcc.a(_umoddi3.o)

.debug_abbrev   0x00000000     0x8df6
 *(.debug_abbrev)
 .debug_abbrev  0x00000000      0x166 build/default/production/_ext/1954962658/ARCFOUR.o
 .debug_abbrev  0x00000166      0x2bc build/default/production/_ext/1954962658/ARP.o
 .debug_abbrev  0x00000422      0x1f0 build/default/production/_ext/1954962658/Announce.o
 .debug_abbrev  0x00000612      0x166 build/default/production/_ext/1954962658/AutoIP.o
 .debug_abbrev  0x00000778      0x166 build/default/production/_ext/1954962658/BerkeleyAPI.o
 .debug_abbrev  0x000008de      0x166 build/default/production/_ext/1954962658/BigInt.o
 .debug_abbrev  0x00000a44      0x299 build/default/production/_ext/1954962658/DHCP.o
 .debug_abbrev  0x00000cdd      0x22e build/default/production/_ext/1954962658/DHCPs.o
 .debug_abbrev  0x00000f0b      0x166 build/default/production/_ext/1954962658/DNS.o
 .debug_abbrev  0x00001071      0x1c6 build/default/production/_ext/1954962658/DNSs.o
 .debug_abbrev  0x00001237      0x19b build/default/production/_ext/1954962658/Delay.o
 .debug_abbrev  0x000013d2      0x166 build/default/production/_ext/1954962658/DynDNS.o
 .debug_abbrev  0x00001538      0x166 build/default/production/_ext/1954962658/FTP.o
 .debug_abbrev  0x0000169e      0x2cc build/default/production/_ext/1954962658/HTTP2.o
 .debug_abbrev  0x0000196a      0x166 build/default/production/_ext/1954962658/Hashes.o
 .debug_abbrev  0x00001ad0      0x23e build/default/production/_ext/1954962658/Helpers.o
 .debug_abbrev  0x00001d0e      0x1c0 build/default/production/_ext/1954962658/ICMP.o
 .debug_abbrev  0x00001ece      0x242 build/default/production/_ext/1954962658/IP.o
 .debug_abbrev  0x00002110      0x166 build/default/production/_ext/1954962658/LCDBlocking.o
 .debug_abbrev  0x00002276      0x28e build/default/production/_ext/1954962658/MPFS2.o
 .debug_abbrev  0x00002504      0x247 build/default/production/_ext/1954962658/NBNS.o
 .debug_abbrev  0x0000274b      0x166 build/default/production/_ext/1954962658/RSA.o
 .debug_abbrev  0x000028b1      0x166 build/default/production/_ext/1954962658/Random.o
 .debug_abbrev  0x00002a17      0x1b1 build/default/production/_ext/1954962658/Reboot.o
 .debug_abbrev  0x00002bc8      0x166 build/default/production/_ext/1954962658/SMTP.o
 .debug_abbrev  0x00002d2e      0x166 build/default/production/_ext/1954962658/SNMP.o
 .debug_abbrev  0x00002e94      0x166 build/default/production/_ext/1954962658/SNTP.o
 .debug_abbrev  0x00002ffa      0x166 build/default/production/_ext/1954962658/SPIEEPROM.o
 .debug_abbrev  0x00003160      0x166 build/default/production/_ext/1954962658/SPIFlash.o
 .debug_abbrev  0x000032c6      0x166 build/default/production/_ext/1954962658/SPIRAM.o
 .debug_abbrev  0x0000342c      0x166 build/default/production/_ext/1954962658/SSL.o
 .debug_abbrev  0x00003592      0x21a build/default/production/_ext/1954962658/StackTsk.o
 .debug_abbrev  0x000037ac      0x2cb build/default/production/_ext/1954962658/TCP.o
 .debug_abbrev  0x00003a77      0x166 build/default/production/_ext/1954962658/TCPPerformanceTest.o
 .debug_abbrev  0x00003bdd      0x166 build/default/production/_ext/1954962658/TFTPc.o
 .debug_abbrev  0x00003d43      0x166 build/default/production/_ext/1954962658/Telnet.o
 .debug_abbrev  0x00003ea9      0x214 build/default/production/_ext/1954962658/Tick.o
 .debug_abbrev  0x000040bd      0x166 build/default/production/_ext/1954962658/UART.o
 .debug_abbrev  0x00004223      0x166 build/default/production/_ext/1954962658/UART2TCPBridge.o
 .debug_abbrev  0x00004389      0x2d2 build/default/production/_ext/1954962658/UDP.o
 .debug_abbrev  0x0000465b      0x166 build/default/production/_ext/1954962658/UDPPerformanceTest.o
 .debug_abbrev  0x000047c1      0x19f build/default/production/_ext/1954962658/ZeroconfHelper.o
 .debug_abbrev  0x00004960      0x2c2 build/default/production/_ext/1954962658/ZeroconfLinkLocal.o
 .debug_abbrev  0x00004c22      0x317 build/default/production/_ext/1954962658/ZeroconfMulticastDNS.o
 .debug_abbrev  0x00004f39      0x291 build/default/production/_ext/243675038/WFConnectionAlgorithm.o
 .debug_abbrev  0x000051ca      0x222 build/default/production/_ext/243675038/WFConnectionManager.o
 .debug_abbrev  0x000053ec      0x298 build/default/production/_ext/243675038/WFConnectionProfile.o
 .debug_abbrev  0x00005684      0x166 build/default/production/_ext/243675038/WFConsole.o
 .debug_abbrev  0x000057ea      0x166 build/default/production/_ext/243675038/WFConsoleIfconfig.o
 .debug_abbrev  0x00005950      0x166 build/default/production/_ext/243675038/WFConsoleIwconfig.o
 .debug_abbrev  0x00005ab6      0x166 build/default/production/_ext/243675038/WFConsoleIwpriv.o
 .debug_abbrev  0x00005c1c      0x1be build/default/production/_ext/243675038/WFConsoleMsgHandler.o
 .debug_abbrev  0x00005dda      0x1ef build/default/production/_ext/243675038/WFConsoleMsgs.o
 .debug_abbrev  0x00005fc9      0x267 build/default/production/_ext/243675038/WFDriverCom.o
 .debug_abbrev  0x00006230      0x2ab build/default/production/_ext/243675038/WFDriverRaw.o
 .debug_abbrev  0x000064db      0x24a build/default/production/_ext/243675038/WFEasyConfig.o
 .debug_abbrev  0x00006725      0x229 build/default/production/_ext/243675038/WFEventHandler.o
 .debug_abbrev  0x0000694e      0x1da build/default/production/_ext/243675038/WFInit.o
 .debug_abbrev  0x00006b28      0x2b8 build/default/production/_ext/243675038/WFMac.o
 .debug_abbrev  0x00006de0      0x273 build/default/production/_ext/243675038/WFMgmtMsg.o
 .debug_abbrev  0x00007053      0x256 build/default/production/_ext/243675038/WFParamMsg.o
 .debug_abbrev  0x000072a9      0x279 build/default/production/_ext/243675038/WFPowerSave.o
 .debug_abbrev  0x00007522      0x1c9 build/default/production/_ext/243675038/WFScan.o
 .debug_abbrev  0x000076eb      0x1d6 build/default/production/_ext/243675038/WFTxPower.o
 .debug_abbrev  0x000078c1      0x1aa build/default/production/_ext/243675038/WF_Eint.o
 .debug_abbrev  0x00007a6b      0x217 build/default/production/_ext/243675038/WF_Spi.o
 .debug_abbrev  0x00007c82      0x2bd build/default/production/_ext/1472/CustomHTTPApp.o
 .debug_abbrev  0x00007f3f      0x180 build/default/production/_ext/1472/MPFSImg2.o
 .debug_abbrev  0x000080bf      0x397 build/default/production/_ext/1472/MainDemo.o
 .debug_abbrev  0x00008456      0x238 build/default/production/_ext/1472/WF_Config.o
 .debug_abbrev  0x0000868e      0x166 build/default/production/_ext/1472/IperfApp.o
 .debug_abbrev  0x000087f4      0x13d c:/program files (x86)/microchip/mplab c32 suite/bin/../lib/gcc/pic32mx/4.5.1\libgcc.a(_udivdi3.o)
 .debug_abbrev  0x00008931        0x1 c:/program files (x86)/microchip/mplab c32 suite/bin/../lib/gcc/pic32mx/4.5.1/../../../../pic32mx/lib\libc.a(_iob.o)
 .debug_abbrev  0x00008932       0x25 c:/program files (x86)/microchip/mplab c32 suite/bin/../lib/gcc/pic32mx/4.5.1/../../../../pic32mx/lib\libc.a(fwrite.o)
 .debug_abbrev  0x00008957       0x25 c:/program files (x86)/microchip/mplab c32 suite/bin/../lib/gcc/pic32mx/4.5.1/../../../../pic32mx/lib\libc.a(atol.o)
 .debug_abbrev  0x0000897c        0x1 c:/program files (x86)/microchip/mplab c32 suite/bin/../lib/gcc/pic32mx/4.5.1/../../../../pic32mx/lib\libc.a(ctype.o)
 .debug_abbrev  0x0000897d       0x25 c:/program files (x86)/microchip/mplab c32 suite/bin/../lib/gcc/pic32mx/4.5.1/../../../../pic32mx/lib\libc.a(puts.o)
 .debug_abbrev  0x000089a2       0x27 c:/program files (x86)/microchip/mplab c32 suite/bin/../lib/gcc/pic32mx/4.5.1/../../../../pic32mx/lib\libc.a(printf_cdnopsuxX.eo)
 .debug_abbrev  0x000089c9       0x27 c:/program files (x86)/microchip/mplab c32 suite/bin/../lib/gcc/pic32mx/4.5.1/../../../../pic32mx/lib\libc.a(sprintf_cdnopsuxX.eo)
 .debug_abbrev  0x000089f0       0x25 c:/program files (x86)/microchip/mplab c32 suite/bin/../lib/gcc/pic32mx/4.5.1/../../../../pic32mx/lib\libc.a(default-bootstrap-exception-handler.o)
 .debug_abbrev  0x00008a15       0x25 c:/program files (x86)/microchip/mplab c32 suite/bin/../lib/gcc/pic32mx/4.5.1/../../../../pic32mx/lib\libc.a(default-on-reset.o)
 .debug_abbrev  0x00008a3a       0x25 c:/program files (x86)/microchip/mplab c32 suite/bin/../lib/gcc/pic32mx/4.5.1/../../../../pic32mx/lib\libc.a(default-on-bootstrap.o)
 .debug_abbrev  0x00008a5f       0x25 c:/program files (x86)/microchip/mplab c32 suite/bin/../lib/gcc/pic32mx/4.5.1/../../../../pic32mx/lib\libc.a(fflush.o)
 .debug_abbrev  0x00008a84       0x27 c:/program files (x86)/microchip/mplab c32 suite/bin/../lib/gcc/pic32mx/4.5.1/../../../../pic32mx/lib\libc.a(_fputc_simple.o)
 .debug_abbrev  0x00008aab       0x32 c:/program files (x86)/microchip/mplab c32 suite/bin/../lib/gcc/pic32mx/4.5.1/../../../../pic32mx/lib\libc.a(fseek.o)
 .debug_abbrev  0x00008add       0x27 c:/program files (x86)/microchip/mplab c32 suite/bin/../lib/gcc/pic32mx/4.5.1/../../../../pic32mx/lib\libc.a(doprnt_cdnopsuxX.eo)
 .debug_abbrev  0x00008b04       0x25 c:/program files (x86)/microchip/mplab c32 suite/bin/../lib/gcc/pic32mx/4.5.1/../../../../pic32mx/lib\libc.a(write.o)
 .debug_abbrev  0x00008b29       0x25 c:/program files (x86)/microchip/mplab c32 suite/bin/../lib/gcc/pic32mx/4.5.1/../../../../pic32mx/lib\libc.a(lseek.o)
 .debug_abbrev  0x00008b4e       0x27 c:/program files (x86)/microchip/mplab c32 suite/bin/../lib/gcc/pic32mx/4.5.1/../../../../pic32mx/lib\libc.a(_flsbuf_simple.o)
 .debug_abbrev  0x00008b75       0x34 c:/program files (x86)/microchip/mplab c32 suite/bin/../lib/gcc/pic32mx/4.5.1/../../../../pic32mx/lib\libmchp_peripheral_32MX695F512H.a(soft_reset_lib.o)
 .debug_abbrev  0x00008ba9       0x25 c:/program files (x86)/microchip/mplab c32 suite/bin/../lib/gcc/pic32mx/4.5.1/../../../../pic32mx/lib\libmchp_peripheral_32MX695F512H.a(pcache.o)
 .debug_abbrev  0x00008bce       0x25 c:/program files (x86)/microchip/mplab c32 suite/bin/../lib/gcc/pic32mx/4.5.1/../../../../pic32mx/lib\libmchp_peripheral_32MX695F512H.a(int_disable_interrupts_lib.o)
 .debug_abbrev  0x00008bf3       0x25 c:/program files (x86)/microchip/mplab c32 suite/bin/../lib/gcc/pic32mx/4.5.1/../../../../pic32mx/lib\libmchp_peripheral_32MX695F512H.a(int_restore_interrupts_lib.o)
 .debug_abbrev  0x00008c18       0x25 c:/program files (x86)/microchip/mplab c32 suite/bin/../lib/gcc/pic32mx/4.5.1/../../../../pic32mx/lib\libmchp_peripheral_32MX695F512H.a(int_enable_mv_int_lib.o)
 .debug_abbrev  0x00008c3d       0x38 c:/program files (x86)/microchip/mplab c32 suite/bin/../lib/gcc/pic32mx/4.5.1/../../../../pic32mx/lib\libmchp_peripheral_32MX695F512H.a(uart_lib.o)
 .debug_abbrev  0x00008c75       0x25 c:/program files (x86)/microchip/mplab c32 suite/bin/../lib/gcc/pic32mx/4.5.1/../../../../pic32mx/lib\libmchp_peripheral_32MX695F512H.a(int_enable_interrupts_lib.o)
 .debug_abbrev  0x00008c9a      0x15c c:/program files (x86)/microchip/mplab c32 suite/bin/../lib/gcc/pic32mx/4.5.1\libgcc.a(_umoddi3.o)

.debug_line     0x00000000     0xacec
 *(.debug_line)
 .debug_line    0x00000000      0x14e build/default/production/_ext/1954962658/ARCFOUR.o
 .debug_line    0x0000014e      0x333 build/default/production/_ext/1954962658/ARP.o
 .debug_line    0x00000481      0x232 build/default/production/_ext/1954962658/Announce.o
 .debug_line    0x000006b3      0x14e build/default/production/_ext/1954962658/AutoIP.o
 .debug_line    0x00000801      0x14e build/default/production/_ext/1954962658/BerkeleyAPI.o
 .debug_line    0x0000094f      0x14e build/default/production/_ext/1954962658/BigInt.o
 .debug_line    0x00000a9d      0x3de build/default/production/_ext/1954962658/DHCP.o
 .debug_line    0x00000e7b      0x2ef build/default/production/_ext/1954962658/DHCPs.o
 .debug_line    0x0000116a      0x14e build/default/production/_ext/1954962658/DNS.o
 .debug_line    0x000012b8      0x21e build/default/production/_ext/1954962658/DNSs.o
 .debug_line    0x000014d6      0x19c build/default/production/_ext/1954962658/Delay.o
 .debug_line    0x00001672      0x14e build/default/production/_ext/1954962658/DynDNS.o
 .debug_line    0x000017c0      0x14e build/default/production/_ext/1954962658/FTP.o
 .debug_line    0x0000190e      0x560 build/default/production/_ext/1954962658/HTTP2.o
 .debug_line    0x00001e6e      0x14e build/default/production/_ext/1954962658/Hashes.o
 .debug_line    0x00001fbc      0x39e build/default/production/_ext/1954962658/Helpers.o
 .debug_line    0x0000235a      0x1db build/default/production/_ext/1954962658/ICMP.o
 .debug_line    0x00002535      0x21c build/default/production/_ext/1954962658/IP.o
 .debug_line    0x00002751      0x14e build/default/production/_ext/1954962658/LCDBlocking.o
 .debug_line    0x0000289f      0x389 build/default/production/_ext/1954962658/MPFS2.o
 .debug_line    0x00002c28      0x265 build/default/production/_ext/1954962658/NBNS.o
 .debug_line    0x00002e8d      0x14e build/default/production/_ext/1954962658/RSA.o
 .debug_line    0x00002fdb      0x14e build/default/production/_ext/1954962658/Random.o
 .debug_line    0x00003129      0x1e7 build/default/production/_ext/1954962658/Reboot.o
 .debug_line    0x00003310      0x14e build/default/production/_ext/1954962658/SMTP.o
 .debug_line    0x0000345e      0x14e build/default/production/_ext/1954962658/SNMP.o
 .debug_line    0x000035ac      0x14e build/default/production/_ext/1954962658/SNTP.o
 .debug_line    0x000036fa      0x14e build/default/production/_ext/1954962658/SPIEEPROM.o
 .debug_line    0x00003848      0x14e build/default/production/_ext/1954962658/SPIFlash.o
 .debug_line    0x00003996      0x14e build/default/production/_ext/1954962658/SPIRAM.o
 .debug_line    0x00003ae4      0x14e build/default/production/_ext/1954962658/SSL.o
 .debug_line    0x00003c32      0x241 build/default/production/_ext/1954962658/StackTsk.o
 .debug_line    0x00003e73      0xb2e build/default/production/_ext/1954962658/TCP.o
 .debug_line    0x000049a1      0x14e build/default/production/_ext/1954962658/TCPPerformanceTest.o
 .debug_line    0x00004aef      0x14e build/default/production/_ext/1954962658/TFTPc.o
 .debug_line    0x00004c3d      0x14e build/default/production/_ext/1954962658/Telnet.o
 .debug_line    0x00004d8b      0x1d8 build/default/production/_ext/1954962658/Tick.o
 .debug_line    0x00004f63      0x14e build/default/production/_ext/1954962658/UART.o
 .debug_line    0x000050b1      0x14e build/default/production/_ext/1954962658/UART2TCPBridge.o
 .debug_line    0x000051ff      0x35a build/default/production/_ext/1954962658/UDP.o
 .debug_line    0x00005559      0x14e build/default/production/_ext/1954962658/UDPPerformanceTest.o
 .debug_line    0x000056a7      0x19f build/default/production/_ext/1954962658/ZeroconfHelper.o
 .debug_line    0x00005846      0x359 build/default/production/_ext/1954962658/ZeroconfLinkLocal.o
 .debug_line    0x00005b9f      0x801 build/default/production/_ext/1954962658/ZeroconfMulticastDNS.o
 .debug_line    0x000063a0      0x353 build/default/production/_ext/243675038/WFConnectionAlgorithm.o
 .debug_line    0x000066f3      0x211 build/default/production/_ext/243675038/WFConnectionManager.o
 .debug_line    0x00006904      0x2c4 build/default/production/_ext/243675038/WFConnectionProfile.o
 .debug_line    0x00006bc8      0x14e build/default/production/_ext/243675038/WFConsole.o
 .debug_line    0x00006d16      0x14e build/default/production/_ext/243675038/WFConsoleIfconfig.o
 .debug_line    0x00006e64      0x14e build/default/production/_ext/243675038/WFConsoleIwconfig.o
 .debug_line    0x00006fb2      0x14e build/default/production/_ext/243675038/WFConsoleIwpriv.o
 .debug_line    0x00007100      0x1b7 build/default/production/_ext/243675038/WFConsoleMsgHandler.o
 .debug_line    0x000072b7      0x26c build/default/production/_ext/243675038/WFConsoleMsgs.o
 .debug_line    0x00007523      0x2e0 build/default/production/_ext/243675038/WFDriverCom.o
 .debug_line    0x00007803      0x307 build/default/production/_ext/243675038/WFDriverRaw.o
 .debug_line    0x00007b0a      0x253 build/default/production/_ext/243675038/WFEasyConfig.o
 .debug_line    0x00007d5d      0x248 build/default/production/_ext/243675038/WFEventHandler.o
 .debug_line    0x00007fa5      0x1e3 build/default/production/_ext/243675038/WFInit.o
 .debug_line    0x00008188      0x413 build/default/production/_ext/243675038/WFMac.o
 .debug_line    0x0000859b      0x24d build/default/production/_ext/243675038/WFMgmtMsg.o
 .debug_line    0x000087e8      0x293 build/default/production/_ext/243675038/WFParamMsg.o
 .debug_line    0x00008a7b      0x231 build/default/production/_ext/243675038/WFPowerSave.o
 .debug_line    0x00008cac      0x1ec build/default/production/_ext/243675038/WFScan.o
 .debug_line    0x00008e98      0x1fe build/default/production/_ext/243675038/WFTxPower.o
 .debug_line    0x00009096      0x1c6 build/default/production/_ext/243675038/WF_Eint.o
 .debug_line    0x0000925c      0x212 build/default/production/_ext/243675038/WF_Spi.o
 .debug_line    0x0000946e      0x3f0 build/default/production/_ext/1472/CustomHTTPApp.o
 .debug_line    0x0000985e      0x15f build/default/production/_ext/1472/MPFSImg2.o
 .debug_line    0x000099bd      0x412 build/default/production/_ext/1472/MainDemo.o
 .debug_line    0x00009dcf      0x1de build/default/production/_ext/1472/WF_Config.o
 .debug_line    0x00009fad      0x14e build/default/production/_ext/1472/IperfApp.o
 .debug_line    0x0000a0fb      0x112 c:/program files (x86)/microchip/mplab c32 suite/bin/../lib/gcc/pic32mx/4.5.1\libgcc.a(_udivdi3.o)
 .debug_line    0x0000a20d        0x0 c:/program files (x86)/microchip/mplab c32 suite/bin/../lib/gcc/pic32mx/4.5.1/../../../../pic32mx/lib\libc.a(_iob.o)
 .debug_line    0x0000a20d       0x87 c:/program files (x86)/microchip/mplab c32 suite/bin/../lib/gcc/pic32mx/4.5.1/../../../../pic32mx/lib\libc.a(fwrite.o)
 .debug_line    0x0000a294       0x85 c:/program files (x86)/microchip/mplab c32 suite/bin/../lib/gcc/pic32mx/4.5.1/../../../../pic32mx/lib\libc.a(atol.o)
 .debug_line    0x0000a319        0x0 c:/program files (x86)/microchip/mplab c32 suite/bin/../lib/gcc/pic32mx/4.5.1/../../../../pic32mx/lib\libc.a(ctype.o)
 .debug_line    0x0000a319       0x85 c:/program files (x86)/microchip/mplab c32 suite/bin/../lib/gcc/pic32mx/4.5.1/../../../../pic32mx/lib\libc.a(puts.o)
 .debug_line    0x0000a39e       0x30 c:/program files (x86)/microchip/mplab c32 suite/bin/../lib/gcc/pic32mx/4.5.1/../../../../pic32mx/lib\libc.a(printf_cdnopsuxX.eo)
 .debug_line    0x0000a3ce       0x31 c:/program files (x86)/microchip/mplab c32 suite/bin/../lib/gcc/pic32mx/4.5.1/../../../../pic32mx/lib\libc.a(sprintf_cdnopsuxX.eo)
 .debug_line    0x0000a3ff       0xa6 c:/program files (x86)/microchip/mplab c32 suite/bin/../lib/gcc/pic32mx/4.5.1/../../../../pic32mx/lib\libc.a(default-bootstrap-exception-handler.o)
 .debug_line    0x0000a4a5       0x93 c:/program files (x86)/microchip/mplab c32 suite/bin/../lib/gcc/pic32mx/4.5.1/../../../../pic32mx/lib\libc.a(default-on-reset.o)
 .debug_line    0x0000a538       0x97 c:/program files (x86)/microchip/mplab c32 suite/bin/../lib/gcc/pic32mx/4.5.1/../../../../pic32mx/lib\libc.a(default-on-bootstrap.o)
 .debug_line    0x0000a5cf       0x87 c:/program files (x86)/microchip/mplab c32 suite/bin/../lib/gcc/pic32mx/4.5.1/../../../../pic32mx/lib\libc.a(fflush.o)
 .debug_line    0x0000a656       0x2f c:/program files (x86)/microchip/mplab c32 suite/bin/../lib/gcc/pic32mx/4.5.1/../../../../pic32mx/lib\libc.a(_fputc_simple.o)
 .debug_line    0x0000a685       0x86 c:/program files (x86)/microchip/mplab c32 suite/bin/../lib/gcc/pic32mx/4.5.1/../../../../pic32mx/lib\libc.a(fseek.o)
 .debug_line    0x0000a70b       0x30 c:/program files (x86)/microchip/mplab c32 suite/bin/../lib/gcc/pic32mx/4.5.1/../../../../pic32mx/lib\libc.a(doprnt_cdnopsuxX.eo)
 .debug_line    0x0000a73b       0x88 c:/program files (x86)/microchip/mplab c32 suite/bin/../lib/gcc/pic32mx/4.5.1/../../../../pic32mx/lib\libc.a(write.o)
 .debug_line    0x0000a7c3       0x88 c:/program files (x86)/microchip/mplab c32 suite/bin/../lib/gcc/pic32mx/4.5.1/../../../../pic32mx/lib\libc.a(lseek.o)
 .debug_line    0x0000a84b       0x30 c:/program files (x86)/microchip/mplab c32 suite/bin/../lib/gcc/pic32mx/4.5.1/../../../../pic32mx/lib\libc.a(_flsbuf_simple.o)
 .debug_line    0x0000a87b       0xbf c:/program files (x86)/microchip/mplab c32 suite/bin/../lib/gcc/pic32mx/4.5.1/../../../../pic32mx/lib\libmchp_peripheral_32MX695F512H.a(soft_reset_lib.o)
 .debug_line    0x0000a93a       0x62 c:/program files (x86)/microchip/mplab c32 suite/bin/../lib/gcc/pic32mx/4.5.1/../../../../pic32mx/lib\libmchp_peripheral_32MX695F512H.a(pcache.o)
 .debug_line    0x0000a99c       0x73 c:/program files (x86)/microchip/mplab c32 suite/bin/../lib/gcc/pic32mx/4.5.1/../../../../pic32mx/lib\libmchp_peripheral_32MX695F512H.a(int_disable_interrupts_lib.o)
 .debug_line    0x0000aa0f       0x73 c:/program files (x86)/microchip/mplab c32 suite/bin/../lib/gcc/pic32mx/4.5.1/../../../../pic32mx/lib\libmchp_peripheral_32MX695F512H.a(int_restore_interrupts_lib.o)
 .debug_line    0x0000aa82       0x6e c:/program files (x86)/microchip/mplab c32 suite/bin/../lib/gcc/pic32mx/4.5.1/../../../../pic32mx/lib\libmchp_peripheral_32MX695F512H.a(int_enable_mv_int_lib.o)
 .debug_line    0x0000aaf0       0x62 c:/program files (x86)/microchip/mplab c32 suite/bin/../lib/gcc/pic32mx/4.5.1/../../../../pic32mx/lib\libmchp_peripheral_32MX695F512H.a(uart_lib.o)
 .debug_line    0x0000ab52       0x72 c:/program files (x86)/microchip/mplab c32 suite/bin/../lib/gcc/pic32mx/4.5.1/../../../../pic32mx/lib\libmchp_peripheral_32MX695F512H.a(int_enable_interrupts_lib.o)
 .debug_line    0x0000abc4      0x128 c:/program files (x86)/microchip/mplab c32 suite/bin/../lib/gcc/pic32mx/4.5.1\libgcc.a(_umoddi3.o)

.debug_frame    0x00000000     0x315c
 *(.debug_frame)
 .debug_frame   0x00000000      0x118 build/default/production/_ext/1954962658/ARP.o
 .debug_frame   0x00000118       0x48 build/default/production/_ext/1954962658/Announce.o
 .debug_frame   0x00000160      0x114 build/default/production/_ext/1954962658/DHCP.o
 .debug_frame   0x00000274       0x64 build/default/production/_ext/1954962658/DHCPs.o
 .debug_frame   0x000002d8       0x48 build/default/production/_ext/1954962658/DNSs.o
 .debug_frame   0x00000320       0x44 build/default/production/_ext/1954962658/Delay.o
 .debug_frame   0x00000364      0x1b4 build/default/production/_ext/1954962658/HTTP2.o
 .debug_frame   0x00000518      0x1a0 build/default/production/_ext/1954962658/Helpers.o
 .debug_frame   0x000006b8       0x2c build/default/production/_ext/1954962658/ICMP.o
 .debug_frame   0x000006e4       0x80 build/default/production/_ext/1954962658/IP.o
 .debug_frame   0x00000764      0x230 build/default/production/_ext/1954962658/MPFS2.o
 .debug_frame   0x00000994       0x64 build/default/production/_ext/1954962658/NBNS.o
 .debug_frame   0x000009f8       0x2c build/default/production/_ext/1954962658/Reboot.o
 .debug_frame   0x00000a24       0x64 build/default/production/_ext/1954962658/StackTsk.o
 .debug_frame   0x00000a88      0x39c build/default/production/_ext/1954962658/TCP.o
 .debug_frame   0x00000e24       0xcc build/default/production/_ext/1954962658/Tick.o
 .debug_frame   0x00000ef0      0x200 build/default/production/_ext/1954962658/UDP.o
 .debug_frame   0x000010f0       0x2c build/default/production/_ext/1954962658/ZeroconfHelper.o
 .debug_frame   0x0000111c       0xcc build/default/production/_ext/1954962658/ZeroconfLinkLocal.o
 .debug_frame   0x000011e8      0x2f0 build/default/production/_ext/1954962658/ZeroconfMulticastDNS.o
 .debug_frame   0x000014d8      0x3dc build/default/production/_ext/243675038/WFConnectionAlgorithm.o
 .debug_frame   0x000018b4       0x94 build/default/production/_ext/243675038/WFConnectionManager.o
 .debug_frame   0x00001948      0x224 build/default/production/_ext/243675038/WFConnectionProfile.o
 .debug_frame   0x00001b6c       0x2c build/default/production/_ext/243675038/WFConsoleMsgHandler.o
 .debug_frame   0x00001b98       0x44 build/default/production/_ext/243675038/WFConsoleMsgs.o
 .debug_frame   0x00001bdc      0x198 build/default/production/_ext/243675038/WFDriverCom.o
 .debug_frame   0x00001d74      0x25c build/default/production/_ext/243675038/WFDriverRaw.o
 .debug_frame   0x00001fd0       0xcc build/default/production/_ext/243675038/WFEasyConfig.o
 .debug_frame   0x0000209c       0x60 build/default/production/_ext/243675038/WFEventHandler.o
 .debug_frame   0x000020fc       0x48 build/default/production/_ext/243675038/WFInit.o
 .debug_frame   0x00002144      0x354 build/default/production/_ext/243675038/WFMac.o
 .debug_frame   0x00002498       0xac build/default/production/_ext/243675038/WFMgmtMsg.o
 .debug_frame   0x00002544      0x1d0 build/default/production/_ext/243675038/WFParamMsg.o
 .debug_frame   0x00002714      0x114 build/default/production/_ext/243675038/WFPowerSave.o
 .debug_frame   0x00002828       0x48 build/default/production/_ext/243675038/WFScan.o
 .debug_frame   0x00002870       0x64 build/default/production/_ext/243675038/WFTxPower.o
 .debug_frame   0x000028d4       0xd0 build/default/production/_ext/243675038/WF_Eint.o
 .debug_frame   0x000029a4       0x90 build/default/production/_ext/243675038/WF_Spi.o
 .debug_frame   0x00002a34      0x1b8 build/default/production/_ext/1472/CustomHTTPApp.o
 .debug_frame   0x00002bec       0xfc build/default/production/_ext/1472/MainDemo.o
 .debug_frame   0x00002ce8       0x60 build/default/production/_ext/1472/WF_Config.o
 .debug_frame   0x00002d48       0x3c c:/program files (x86)/microchip/mplab c32 suite/bin/../lib/gcc/pic32mx/4.5.1/../../../../pic32mx/lib\libc.a(fwrite.o)
 .debug_frame   0x00002d84       0x20 c:/program files (x86)/microchip/mplab c32 suite/bin/../lib/gcc/pic32mx/4.5.1/../../../../pic32mx/lib\libc.a(atol.o)
 .debug_frame   0x00002da4       0x48 c:/program files (x86)/microchip/mplab c32 suite/bin/../lib/gcc/pic32mx/4.5.1/../../../../pic32mx/lib\libc.a(puts.o)
 .debug_frame   0x00002dec       0x28 c:/program files (x86)/microchip/mplab c32 suite/bin/../lib/gcc/pic32mx/4.5.1/../../../../pic32mx/lib\libc.a(printf_cdnopsuxX.eo)
 .debug_frame   0x00002e14       0x2c c:/program files (x86)/microchip/mplab c32 suite/bin/../lib/gcc/pic32mx/4.5.1/../../../../pic32mx/lib\libc.a(sprintf_cdnopsuxX.eo)
 .debug_frame   0x00002e40       0x20 c:/program files (x86)/microchip/mplab c32 suite/bin/../lib/gcc/pic32mx/4.5.1/../../../../pic32mx/lib\libc.a(default-bootstrap-exception-handler.o)
 .debug_frame   0x00002e60       0x20 c:/program files (x86)/microchip/mplab c32 suite/bin/../lib/gcc/pic32mx/4.5.1/../../../../pic32mx/lib\libc.a(default-on-reset.o)
 .debug_frame   0x00002e80       0x20 c:/program files (x86)/microchip/mplab c32 suite/bin/../lib/gcc/pic32mx/4.5.1/../../../../pic32mx/lib\libc.a(default-on-bootstrap.o)
 .debug_frame   0x00002ea0       0x2c c:/program files (x86)/microchip/mplab c32 suite/bin/../lib/gcc/pic32mx/4.5.1/../../../../pic32mx/lib\libc.a(fflush.o)
 .debug_frame   0x00002ecc       0x2c c:/program files (x86)/microchip/mplab c32 suite/bin/../lib/gcc/pic32mx/4.5.1/../../../../pic32mx/lib\libc.a(_fputc_simple.o)
 .debug_frame   0x00002ef8       0x4c c:/program files (x86)/microchip/mplab c32 suite/bin/../lib/gcc/pic32mx/4.5.1/../../../../pic32mx/lib\libc.a(fseek.o)
 .debug_frame   0x00002f44       0x38 c:/program files (x86)/microchip/mplab c32 suite/bin/../lib/gcc/pic32mx/4.5.1/../../../../pic32mx/lib\libc.a(doprnt_cdnopsuxX.eo)
 .debug_frame   0x00002f7c       0x28 c:/program files (x86)/microchip/mplab c32 suite/bin/../lib/gcc/pic32mx/4.5.1/../../../../pic32mx/lib\libc.a(write.o)
 .debug_frame   0x00002fa4       0x20 c:/program files (x86)/microchip/mplab c32 suite/bin/../lib/gcc/pic32mx/4.5.1/../../../../pic32mx/lib\libc.a(lseek.o)
 .debug_frame   0x00002fc4       0x28 c:/program files (x86)/microchip/mplab c32 suite/bin/../lib/gcc/pic32mx/4.5.1/../../../../pic32mx/lib\libc.a(_flsbuf_simple.o)
 .debug_frame   0x00002fec       0x28 c:/program files (x86)/microchip/mplab c32 suite/bin/../lib/gcc/pic32mx/4.5.1/../../../../pic32mx/lib\libmchp_peripheral_32MX695F512H.a(soft_reset_lib.o)
 .debug_frame   0x00003014       0x30 c:/program files (x86)/microchip/mplab c32 suite/bin/../lib/gcc/pic32mx/4.5.1/../../../../pic32mx/lib\libmchp_peripheral_32MX695F512H.a(pcache.o)
 .debug_frame   0x00003044       0x20 c:/program files (x86)/microchip/mplab c32 suite/bin/../lib/gcc/pic32mx/4.5.1/../../../../pic32mx/lib\libmchp_peripheral_32MX695F512H.a(int_disable_interrupts_lib.o)
 .debug_frame   0x00003064       0x20 c:/program files (x86)/microchip/mplab c32 suite/bin/../lib/gcc/pic32mx/4.5.1/../../../../pic32mx/lib\libmchp_peripheral_32MX695F512H.a(int_restore_interrupts_lib.o)
 .debug_frame   0x00003084       0x28 c:/program files (x86)/microchip/mplab c32 suite/bin/../lib/gcc/pic32mx/4.5.1/../../../../pic32mx/lib\libmchp_peripheral_32MX695F512H.a(int_enable_mv_int_lib.o)
 .debug_frame   0x000030ac       0x90 c:/program files (x86)/microchip/mplab c32 suite/bin/../lib/gcc/pic32mx/4.5.1/../../../../pic32mx/lib\libmchp_peripheral_32MX695F512H.a(uart_lib.o)
 .debug_frame   0x0000313c       0x20 c:/program files (x86)/microchip/mplab c32 suite/bin/../lib/gcc/pic32mx/4.5.1/../../../../pic32mx/lib\libmchp_peripheral_32MX695F512H.a(int_enable_interrupts_lib.o)

.debug_str      0x00000000     0x5e22
 *(.debug_str)
 .debug_str     0x00000000      0x12f build/default/production/_ext/1954962658/ARCFOUR.o
 .debug_str     0x0000012f      0x147 build/default/production/_ext/1954962658/ARP.o
 .debug_str     0x00000276      0x15b build/default/production/_ext/1954962658/Announce.o
 .debug_str     0x000003d1      0x12f build/default/production/_ext/1954962658/AutoIP.o
 .debug_str     0x00000500      0x12f build/default/production/_ext/1954962658/BerkeleyAPI.o
 .debug_str     0x0000062f      0x12f build/default/production/_ext/1954962658/BigInt.o
 .debug_str     0x0000075e      0x177 build/default/production/_ext/1954962658/DHCP.o
 .debug_str     0x000008d5      0x165 build/default/production/_ext/1954962658/DHCPs.o
 .debug_str     0x00000a3a      0x12f build/default/production/_ext/1954962658/DNS.o
 .debug_str     0x00000b69      0x139 build/default/production/_ext/1954962658/DNSs.o
 .debug_str     0x00000ca2      0x12f build/default/production/_ext/1954962658/Delay.o
 .debug_str     0x00000dd1      0x12f build/default/production/_ext/1954962658/DynDNS.o
 .debug_str     0x00000f00      0x12f build/default/production/_ext/1954962658/FTP.o
 .debug_str     0x0000102f      0x15b build/default/production/_ext/1954962658/HTTP2.o
 .debug_str     0x0000118a      0x12f build/default/production/_ext/1954962658/Hashes.o
 .debug_str     0x000012b9      0x142 build/default/production/_ext/1954962658/Helpers.o
 .debug_str     0x000013fb      0x12f build/default/production/_ext/1954962658/ICMP.o
 .debug_str     0x0000152a      0x142 build/default/production/_ext/1954962658/IP.o
 .debug_str     0x0000166c      0x12f build/default/production/_ext/1954962658/LCDBlocking.o
 .debug_str     0x0000179b      0x153 build/default/production/_ext/1954962658/MPFS2.o
 .debug_str     0x000018ee      0x152 build/default/production/_ext/1954962658/NBNS.o
 .debug_str     0x00001a40      0x12f build/default/production/_ext/1954962658/RSA.o
 .debug_str     0x00001b6f      0x12f build/default/production/_ext/1954962658/Random.o
 .debug_str     0x00001c9e      0x14d build/default/production/_ext/1954962658/Reboot.o
 .debug_str     0x00001deb      0x12f build/default/production/_ext/1954962658/SMTP.o
 .debug_str     0x00001f1a      0x12f build/default/production/_ext/1954962658/SNMP.o
 .debug_str     0x00002049      0x12f build/default/production/_ext/1954962658/SNTP.o
 .debug_str     0x00002178      0x12f build/default/production/_ext/1954962658/SPIEEPROM.o
 .debug_str     0x000022a7      0x12f build/default/production/_ext/1954962658/SPIFlash.o
 .debug_str     0x000023d6      0x12f build/default/production/_ext/1954962658/SPIRAM.o
 .debug_str     0x00002505      0x12f build/default/production/_ext/1954962658/SSL.o
 .debug_str     0x00002634      0x144 build/default/production/_ext/1954962658/StackTsk.o
 .debug_str     0x00002778      0x1fa build/default/production/_ext/1954962658/TCP.o
 .debug_str     0x00002972      0x12f build/default/production/_ext/1954962658/TCPPerformanceTest.o
 .debug_str     0x00002aa1      0x12f build/default/production/_ext/1954962658/TFTPc.o
 .debug_str     0x00002bd0      0x12f build/default/production/_ext/1954962658/Telnet.o
 .debug_str     0x00002cff      0x14b build/default/production/_ext/1954962658/Tick.o
 .debug_str     0x00002e4a      0x12f build/default/production/_ext/1954962658/UART.o
 .debug_str     0x00002f79      0x12f build/default/production/_ext/1954962658/UART2TCPBridge.o
 .debug_str     0x000030a8      0x1a1 build/default/production/_ext/1954962658/UDP.o
 .debug_str     0x00003249      0x12f build/default/production/_ext/1954962658/UDPPerformanceTest.o
 .debug_str     0x00003378      0x12f build/default/production/_ext/1954962658/ZeroconfHelper.o
 .debug_str     0x000034a7      0x190 build/default/production/_ext/1954962658/ZeroconfLinkLocal.o
 .debug_str     0x00003637      0x1de build/default/production/_ext/1954962658/ZeroconfMulticastDNS.o
 .debug_str     0x00003815      0x213 build/default/production/_ext/243675038/WFConnectionAlgorithm.o
 .debug_str     0x00003a28      0x136 build/default/production/_ext/243675038/WFConnectionManager.o
 .debug_str     0x00003b5e      0x1e2 build/default/production/_ext/243675038/WFConnectionProfile.o
 .debug_str     0x00003d40      0x12f build/default/production/_ext/243675038/WFConsole.o
 .debug_str     0x00003e6f      0x12f build/default/production/_ext/243675038/WFConsoleIfconfig.o
 .debug_str     0x00003f9e      0x12f build/default/production/_ext/243675038/WFConsoleIwconfig.o
 .debug_str     0x000040cd      0x12f build/default/production/_ext/243675038/WFConsoleIwpriv.o
 .debug_str     0x000041fc      0x12f build/default/production/_ext/243675038/WFConsoleMsgHandler.o
 .debug_str     0x0000432b      0x171 build/default/production/_ext/243675038/WFConsoleMsgs.o
 .debug_str     0x0000449c      0x185 build/default/production/_ext/243675038/WFDriverCom.o
 .debug_str     0x00004621      0x1e8 build/default/production/_ext/243675038/WFDriverRaw.o
 .debug_str     0x00004809      0x149 build/default/production/_ext/243675038/WFEasyConfig.o
 .debug_str     0x00004952      0x13a build/default/production/_ext/243675038/WFEventHandler.o
 .debug_str     0x00004a8c      0x139 build/default/production/_ext/243675038/WFInit.o
 .debug_str     0x00004bc5      0x18c build/default/production/_ext/243675038/WFMac.o
 .debug_str     0x00004d51      0x192 build/default/production/_ext/243675038/WFMgmtMsg.o
 .debug_str     0x00004ee3      0x178 build/default/production/_ext/243675038/WFParamMsg.o
 .debug_str     0x0000505b      0x14e build/default/production/_ext/243675038/WFPowerSave.o
 .debug_str     0x000051a9      0x12f build/default/production/_ext/243675038/WFScan.o
 .debug_str     0x000052d8      0x137 build/default/production/_ext/243675038/WFTxPower.o
 .debug_str     0x0000540f      0x160 build/default/production/_ext/243675038/WF_Eint.o
 .debug_str     0x0000556f      0x16e build/default/production/_ext/243675038/WF_Spi.o
 .debug_str     0x000056dd      0x1a8 build/default/production/_ext/1472/CustomHTTPApp.o
 .debug_str     0x00005885      0x12f build/default/production/_ext/1472/MPFSImg2.o
 .debug_str     0x000059b4      0x1f0 build/default/production/_ext/1472/MainDemo.o
 .debug_str     0x00005ba4      0x14f build/default/production/_ext/1472/WF_Config.o
 .debug_str     0x00005cf3      0x12f build/default/production/_ext/1472/IperfApp.o
 .debug_str     0x00005e22        0x0 c:/program files (x86)/microchip/mplab c32 suite/bin/../lib/gcc/pic32mx/4.5.1\libgcc.a(_udivdi3.o)
 .debug_str     0x00005e22        0x0 c:/program files (x86)/microchip/mplab c32 suite/bin/../lib/gcc/pic32mx/4.5.1/../../../../pic32mx/lib\libc.a(_iob.o)
 .debug_str     0x00005e22        0x0 c:/program files (x86)/microchip/mplab c32 suite/bin/../lib/gcc/pic32mx/4.5.1/../../../../pic32mx/lib\libc.a(fwrite.o)
 .debug_str     0x00005e22        0x0 c:/program files (x86)/microchip/mplab c32 suite/bin/../lib/gcc/pic32mx/4.5.1/../../../../pic32mx/lib\libc.a(atol.o)
 .debug_str     0x00005e22        0x0 c:/program files (x86)/microchip/mplab c32 suite/bin/../lib/gcc/pic32mx/4.5.1/../../../../pic32mx/lib\libc.a(ctype.o)
 .debug_str     0x00005e22        0x0 c:/program files (x86)/microchip/mplab c32 suite/bin/../lib/gcc/pic32mx/4.5.1/../../../../pic32mx/lib\libc.a(puts.o)
 .debug_str     0x00005e22        0x0 c:/program files (x86)/microchip/mplab c32 suite/bin/../lib/gcc/pic32mx/4.5.1/../../../../pic32mx/lib\libc.a(printf_cdnopsuxX.eo)
 .debug_str     0x00005e22        0x0 c:/program files (x86)/microchip/mplab c32 suite/bin/../lib/gcc/pic32mx/4.5.1/../../../../pic32mx/lib\libc.a(sprintf_cdnopsuxX.eo)
 .debug_str     0x00005e22        0x0 c:/program files (x86)/microchip/mplab c32 suite/bin/../lib/gcc/pic32mx/4.5.1/../../../../pic32mx/lib\libc.a(default-bootstrap-exception-handler.o)
 .debug_str     0x00005e22        0x0 c:/program files (x86)/microchip/mplab c32 suite/bin/../lib/gcc/pic32mx/4.5.1/../../../../pic32mx/lib\libc.a(default-on-reset.o)
 .debug_str     0x00005e22        0x0 c:/program files (x86)/microchip/mplab c32 suite/bin/../lib/gcc/pic32mx/4.5.1/../../../../pic32mx/lib\libc.a(default-on-bootstrap.o)
 .debug_str     0x00005e22        0x0 c:/program files (x86)/microchip/mplab c32 suite/bin/../lib/gcc/pic32mx/4.5.1/../../../../pic32mx/lib\libc.a(fflush.o)
 .debug_str     0x00005e22        0x0 c:/program files (x86)/microchip/mplab c32 suite/bin/../lib/gcc/pic32mx/4.5.1/../../../../pic32mx/lib\libc.a(_fputc_simple.o)
 .debug_str     0x00005e22        0x0 c:/program files (x86)/microchip/mplab c32 suite/bin/../lib/gcc/pic32mx/4.5.1/../../../../pic32mx/lib\libc.a(fseek.o)
 .debug_str     0x00005e22        0x0 c:/program files (x86)/microchip/mplab c32 suite/bin/../lib/gcc/pic32mx/4.5.1/../../../../pic32mx/lib\libc.a(doprnt_cdnopsuxX.eo)
 .debug_str     0x00005e22        0x0 c:/program files (x86)/microchip/mplab c32 suite/bin/../lib/gcc/pic32mx/4.5.1/../../../../pic32mx/lib\libc.a(write.o)
 .debug_str     0x00005e22        0x0 c:/program files (x86)/microchip/mplab c32 suite/bin/../lib/gcc/pic32mx/4.5.1/../../../../pic32mx/lib\libc.a(lseek.o)
 .debug_str     0x00005e22        0x0 c:/program files (x86)/microchip/mplab c32 suite/bin/../lib/gcc/pic32mx/4.5.1/../../../../pic32mx/lib\libc.a(_flsbuf_simple.o)
 .debug_str     0x00005e22        0x0 c:/program files (x86)/microchip/mplab c32 suite/bin/../lib/gcc/pic32mx/4.5.1/../../../../pic32mx/lib\libmchp_peripheral_32MX695F512H.a(soft_reset_lib.o)
 .debug_str     0x00005e22        0x0 c:/program files (x86)/microchip/mplab c32 suite/bin/../lib/gcc/pic32mx/4.5.1/../../../../pic32mx/lib\libmchp_peripheral_32MX695F512H.a(pcache.o)
 .debug_str     0x00005e22        0x0 c:/program files (x86)/microchip/mplab c32 suite/bin/../lib/gcc/pic32mx/4.5.1/../../../../pic32mx/lib\libmchp_peripheral_32MX695F512H.a(int_disable_interrupts_lib.o)
 .debug_str     0x00005e22        0x0 c:/program files (x86)/microchip/mplab c32 suite/bin/../lib/gcc/pic32mx/4.5.1/../../../../pic32mx/lib\libmchp_peripheral_32MX695F512H.a(int_restore_interrupts_lib.o)
 .debug_str     0x00005e22        0x0 c:/program files (x86)/microchip/mplab c32 suite/bin/../lib/gcc/pic32mx/4.5.1/../../../../pic32mx/lib\libmchp_peripheral_32MX695F512H.a(int_enable_mv_int_lib.o)
 .debug_str     0x00005e22        0x0 c:/program files (x86)/microchip/mplab c32 suite/bin/../lib/gcc/pic32mx/4.5.1/../../../../pic32mx/lib\libmchp_peripheral_32MX695F512H.a(uart_lib.o)
 .debug_str     0x00005e22        0x0 c:/program files (x86)/microchip/mplab c32 suite/bin/../lib/gcc/pic32mx/4.5.1/../../../../pic32mx/lib\libmchp_peripheral_32MX695F512H.a(int_enable_interrupts_lib.o)
 .debug_str     0x00005e22        0x0 c:/program files (x86)/microchip/mplab c32 suite/bin/../lib/gcc/pic32mx/4.5.1\libgcc.a(_umoddi3.o)

.debug_loc      0x00000000     0x1464
 *(.debug_loc)
 .debug_loc     0x00000000      0xa47 c:/program files (x86)/microchip/mplab c32 suite/bin/../lib/gcc/pic32mx/4.5.1\libgcc.a(_udivdi3.o)
 .debug_loc     0x00000a47      0xa1d c:/program files (x86)/microchip/mplab c32 suite/bin/../lib/gcc/pic32mx/4.5.1\libgcc.a(_umoddi3.o)

.debug_macinfo
 *(.debug_macinfo)

.debug_weaknames
 *(.debug_weaknames)

.debug_funcnames
 *(.debug_funcnames)

.debug_typenames
 *(.debug_typenames)

.debug_varnames
 *(.debug_varnames)

.debug_pubtypes
                0x00000000     0x59b5
 *(.debug_pubtypes)
 .debug_pubtypes
                0x00000000       0xe7 build/default/production/_ext/1954962658/ARCFOUR.o
 .debug_pubtypes
                0x000000e7      0x19f build/default/production/_ext/1954962658/ARP.o
 .debug_pubtypes
                0x00000286      0x186 build/default/production/_ext/1954962658/Announce.o
 .debug_pubtypes
                0x0000040c       0xe7 build/default/production/_ext/1954962658/AutoIP.o
 .debug_pubtypes
                0x000004f3       0xe7 build/default/production/_ext/1954962658/BerkeleyAPI.o
 .debug_pubtypes
                0x000005da       0xe7 build/default/production/_ext/1954962658/BigInt.o
 .debug_pubtypes
                0x000006c1      0x1c4 build/default/production/_ext/1954962658/DHCP.o
 .debug_pubtypes
                0x00000885      0x1aa build/default/production/_ext/1954962658/DHCPs.o
 .debug_pubtypes
                0x00000a2f       0xe7 build/default/production/_ext/1954962658/DNS.o
 .debug_pubtypes
                0x00000b16      0x149 build/default/production/_ext/1954962658/DNSs.o
 .debug_pubtypes
                0x00000c5f       0xfa build/default/production/_ext/1954962658/Delay.o
 .debug_pubtypes
                0x00000d59       0xe7 build/default/production/_ext/1954962658/DynDNS.o
 .debug_pubtypes
                0x00000e40       0xe7 build/default/production/_ext/1954962658/FTP.o
 .debug_pubtypes
                0x00000f27      0x1c4 build/default/production/_ext/1954962658/HTTP2.o
 .debug_pubtypes
                0x000010eb       0xe7 build/default/production/_ext/1954962658/Hashes.o
 .debug_pubtypes
                0x000011d2      0x14d build/default/production/_ext/1954962658/Helpers.o
 .debug_pubtypes
                0x0000131f      0x139 build/default/production/_ext/1954962658/ICMP.o
 .debug_pubtypes
                0x00001458      0x178 build/default/production/_ext/1954962658/IP.o
 .debug_pubtypes
                0x000015d0       0xe7 build/default/production/_ext/1954962658/LCDBlocking.o
 .debug_pubtypes
                0x000016b7      0x168 build/default/production/_ext/1954962658/MPFS2.o
 .debug_pubtypes
                0x0000181f      0x1a7 build/default/production/_ext/1954962658/NBNS.o
 .debug_pubtypes
                0x000019c6       0xe7 build/default/production/_ext/1954962658/RSA.o
 .debug_pubtypes
                0x00001aad       0xe7 build/default/production/_ext/1954962658/Random.o
 .debug_pubtypes
                0x00001b94      0x168 build/default/production/_ext/1954962658/Reboot.o
 .debug_pubtypes
                0x00001cfc       0xe7 build/default/production/_ext/1954962658/SMTP.o
 .debug_pubtypes
                0x00001de3       0xe7 build/default/production/_ext/1954962658/SNMP.o
 .debug_pubtypes
                0x00001eca       0xe7 build/default/production/_ext/1954962658/SNTP.o
 .debug_pubtypes
                0x00001fb1       0xe7 build/default/production/_ext/1954962658/SPIEEPROM.o
 .debug_pubtypes
                0x00002098       0xe7 build/default/production/_ext/1954962658/SPIFlash.o
 .debug_pubtypes
                0x0000217f       0xe7 build/default/production/_ext/1954962658/SPIRAM.o
 .debug_pubtypes
                0x00002266       0xe7 build/default/production/_ext/1954962658/SSL.o
 .debug_pubtypes
                0x0000234d      0x168 build/default/production/_ext/1954962658/StackTsk.o
 .debug_pubtypes
                0x000024b5      0x210 build/default/production/_ext/1954962658/TCP.o
 .debug_pubtypes
                0x000026c5       0xe7 build/default/production/_ext/1954962658/TCPPerformanceTest.o
 .debug_pubtypes
                0x000027ac       0xe7 build/default/production/_ext/1954962658/TFTPc.o
 .debug_pubtypes
                0x00002893       0xe7 build/default/production/_ext/1954962658/Telnet.o
 .debug_pubtypes
                0x0000297a      0x137 build/default/production/_ext/1954962658/Tick.o
 .debug_pubtypes
                0x00002ab1       0xe7 build/default/production/_ext/1954962658/UART.o
 .debug_pubtypes
                0x00002b98       0xe7 build/default/production/_ext/1954962658/UART2TCPBridge.o
 .debug_pubtypes
                0x00002c7f      0x1d7 build/default/production/_ext/1954962658/UDP.o
 .debug_pubtypes
                0x00002e56       0xe7 build/default/production/_ext/1954962658/UDPPerformanceTest.o
 .debug_pubtypes
                0x00002f3d       0xfa build/default/production/_ext/1954962658/ZeroconfHelper.o
 .debug_pubtypes
                0x00003037      0x227 build/default/production/_ext/1954962658/ZeroconfLinkLocal.o
 .debug_pubtypes
                0x0000325e      0x38a build/default/production/_ext/1954962658/ZeroconfMulticastDNS.o
 .debug_pubtypes
                0x000035e8      0x18b build/default/production/_ext/243675038/WFConnectionAlgorithm.o
 .debug_pubtypes
                0x00003773      0x104 build/default/production/_ext/243675038/WFConnectionManager.o
 .debug_pubtypes
                0x00003877      0x189 build/default/production/_ext/243675038/WFConnectionProfile.o
 .debug_pubtypes
                0x00003a00       0xe7 build/default/production/_ext/243675038/WFConsole.o
 .debug_pubtypes
                0x00003ae7       0xe7 build/default/production/_ext/243675038/WFConsoleIfconfig.o
 .debug_pubtypes
                0x00003bce       0xe7 build/default/production/_ext/243675038/WFConsoleIwconfig.o
 .debug_pubtypes
                0x00003cb5       0xe7 build/default/production/_ext/243675038/WFConsoleIwpriv.o
 .debug_pubtypes
                0x00003d9c      0x118 build/default/production/_ext/243675038/WFConsoleMsgHandler.o
 .debug_pubtypes
                0x00003eb4      0x13d build/default/production/_ext/243675038/WFConsoleMsgs.o
 .debug_pubtypes
                0x00003ff1      0x173 build/default/production/_ext/243675038/WFDriverCom.o
 .debug_pubtypes
                0x00004164      0x12c build/default/production/_ext/243675038/WFDriverRaw.o
 .debug_pubtypes
                0x00004290      0x187 build/default/production/_ext/243675038/WFEasyConfig.o
 .debug_pubtypes
                0x00004417      0x13e build/default/production/_ext/243675038/WFEventHandler.o
 .debug_pubtypes
                0x00004555      0x144 build/default/production/_ext/243675038/WFInit.o
 .debug_pubtypes
                0x00004699      0x172 build/default/production/_ext/243675038/WFMac.o
 .debug_pubtypes
                0x0000480b      0x140 build/default/production/_ext/243675038/WFMgmtMsg.o
 .debug_pubtypes
                0x0000494b      0x169 build/default/production/_ext/243675038/WFParamMsg.o
 .debug_pubtypes
                0x00004ab4      0x15e build/default/production/_ext/243675038/WFPowerSave.o
 .debug_pubtypes
                0x00004c12      0x10e build/default/production/_ext/243675038/WFScan.o
 .debug_pubtypes
                0x00004d20      0x104 build/default/production/_ext/243675038/WFTxPower.o
 .debug_pubtypes
                0x00004e24      0x153 build/default/production/_ext/243675038/WF_Eint.o
 .debug_pubtypes
                0x00004f77      0x148 build/default/production/_ext/243675038/WF_Spi.o
 .debug_pubtypes
                0x000050bf      0x298 build/default/production/_ext/1472/CustomHTTPApp.o
 .debug_pubtypes
                0x00005357       0xf0 build/default/production/_ext/1472/MPFSImg2.o
 .debug_pubtypes
                0x00005447      0x22a build/default/production/_ext/1472/MainDemo.o
 .debug_pubtypes
                0x00005671      0x1ab build/default/production/_ext/1472/WF_Config.o
 .debug_pubtypes
                0x0000581c       0xe7 build/default/production/_ext/1472/IperfApp.o
 .debug_pubtypes
                0x00005903       0x59 c:/program files (x86)/microchip/mplab c32 suite/bin/../lib/gcc/pic32mx/4.5.1\libgcc.a(_udivdi3.o)
 .debug_pubtypes
                0x0000595c       0x59 c:/program files (x86)/microchip/mplab c32 suite/bin/../lib/gcc/pic32mx/4.5.1\libgcc.a(_umoddi3.o)

.debug_ranges   0x00000000      0x440
 *(.debug_ranges)
 .debug_ranges  0x00000000       0x18 build/default/production/_ext/1954962658/DHCPs.o
 .debug_ranges  0x00000018       0x30 build/default/production/_ext/1472/CustomHTTPApp.o
 .debug_ranges  0x00000048       0x90 build/default/production/_ext/1472/MainDemo.o
 .debug_ranges  0x000000d8       0xc0 c:/program files (x86)/microchip/mplab c32 suite/bin/../lib/gcc/pic32mx/4.5.1\libgcc.a(_udivdi3.o)
 .debug_ranges  0x00000198       0x10 c:/program files (x86)/microchip/mplab c32 suite/bin/../lib/gcc/pic32mx/4.5.1/../../../../pic32mx/lib\libc.a(fwrite.o)
 .debug_ranges  0x000001a8       0x10 c:/program files (x86)/microchip/mplab c32 suite/bin/../lib/gcc/pic32mx/4.5.1/../../../../pic32mx/lib\libc.a(atol.o)
 .debug_ranges  0x000001b8       0x18 c:/program files (x86)/microchip/mplab c32 suite/bin/../lib/gcc/pic32mx/4.5.1/../../../../pic32mx/lib\libc.a(puts.o)
 .debug_ranges  0x000001d0       0x10 c:/program files (x86)/microchip/mplab c32 suite/bin/../lib/gcc/pic32mx/4.5.1/../../../../pic32mx/lib\libc.a(printf_cdnopsuxX.eo)
 .debug_ranges  0x000001e0       0x10 c:/program files (x86)/microchip/mplab c32 suite/bin/../lib/gcc/pic32mx/4.5.1/../../../../pic32mx/lib\libc.a(sprintf_cdnopsuxX.eo)
 .debug_ranges  0x000001f0       0x10 c:/program files (x86)/microchip/mplab c32 suite/bin/../lib/gcc/pic32mx/4.5.1/../../../../pic32mx/lib\libc.a(default-bootstrap-exception-handler.o)
 .debug_ranges  0x00000200       0x10 c:/program files (x86)/microchip/mplab c32 suite/bin/../lib/gcc/pic32mx/4.5.1/../../../../pic32mx/lib\libc.a(default-on-reset.o)
 .debug_ranges  0x00000210       0x10 c:/program files (x86)/microchip/mplab c32 suite/bin/../lib/gcc/pic32mx/4.5.1/../../../../pic32mx/lib\libc.a(default-on-bootstrap.o)
 .debug_ranges  0x00000220       0x10 c:/program files (x86)/microchip/mplab c32 suite/bin/../lib/gcc/pic32mx/4.5.1/../../../../pic32mx/lib\libc.a(fflush.o)
 .debug_ranges  0x00000230       0x10 c:/program files (x86)/microchip/mplab c32 suite/bin/../lib/gcc/pic32mx/4.5.1/../../../../pic32mx/lib\libc.a(_fputc_simple.o)
 .debug_ranges  0x00000240       0x18 c:/program files (x86)/microchip/mplab c32 suite/bin/../lib/gcc/pic32mx/4.5.1/../../../../pic32mx/lib\libc.a(fseek.o)
 .debug_ranges  0x00000258       0x10 c:/program files (x86)/microchip/mplab c32 suite/bin/../lib/gcc/pic32mx/4.5.1/../../../../pic32mx/lib\libc.a(doprnt_cdnopsuxX.eo)
 .debug_ranges  0x00000268       0x10 c:/program files (x86)/microchip/mplab c32 suite/bin/../lib/gcc/pic32mx/4.5.1/../../../../pic32mx/lib\libc.a(write.o)
 .debug_ranges  0x00000278       0x10 c:/program files (x86)/microchip/mplab c32 suite/bin/../lib/gcc/pic32mx/4.5.1/../../../../pic32mx/lib\libc.a(lseek.o)
 .debug_ranges  0x00000288       0x10 c:/program files (x86)/microchip/mplab c32 suite/bin/../lib/gcc/pic32mx/4.5.1/../../../../pic32mx/lib\libc.a(_flsbuf_simple.o)
 .debug_ranges  0x00000298       0x10 c:/program files (x86)/microchip/mplab c32 suite/bin/../lib/gcc/pic32mx/4.5.1/../../../../pic32mx/lib\libmchp_peripheral_32MX695F512H.a(soft_reset_lib.o)
 .debug_ranges  0x000002a8       0x18 c:/program files (x86)/microchip/mplab c32 suite/bin/../lib/gcc/pic32mx/4.5.1/../../../../pic32mx/lib\libmchp_peripheral_32MX695F512H.a(pcache.o)
 .debug_ranges  0x000002c0       0x10 c:/program files (x86)/microchip/mplab c32 suite/bin/../lib/gcc/pic32mx/4.5.1/../../../../pic32mx/lib\libmchp_peripheral_32MX695F512H.a(int_disable_interrupts_lib.o)
 .debug_ranges  0x000002d0       0x10 c:/program files (x86)/microchip/mplab c32 suite/bin/../lib/gcc/pic32mx/4.5.1/../../../../pic32mx/lib\libmchp_peripheral_32MX695F512H.a(int_restore_interrupts_lib.o)
 .debug_ranges  0x000002e0       0x10 c:/program files (x86)/microchip/mplab c32 suite/bin/../lib/gcc/pic32mx/4.5.1/../../../../pic32mx/lib\libmchp_peripheral_32MX695F512H.a(int_enable_mv_int_lib.o)
 .debug_ranges  0x000002f0       0x48 c:/program files (x86)/microchip/mplab c32 suite/bin/../lib/gcc/pic32mx/4.5.1/../../../../pic32mx/lib\libmchp_peripheral_32MX695F512H.a(uart_lib.o)
 .debug_ranges  0x00000338       0x10 c:/program files (x86)/microchip/mplab c32 suite/bin/../lib/gcc/pic32mx/4.5.1/../../../../pic32mx/lib\libmchp_peripheral_32MX695F512H.a(int_enable_interrupts_lib.o)
 .debug_ranges  0x00000348       0xf8 c:/program files (x86)/microchip/mplab c32 suite/bin/../lib/gcc/pic32mx/4.5.1\libgcc.a(_umoddi3.o)

.gnu.attributes
                0x00000000       0x10
 *(.gnu.attributes)
 .gnu.attributes
                0x00000000       0x10 build/default/production/_ext/1954962658/ARCFOUR.o
 .gnu.attributes
                0x00000010       0x10 build/default/production/_ext/1954962658/ARP.o
 .gnu.attributes
                0x00000020       0x10 build/default/production/_ext/1954962658/Announce.o
 .gnu.attributes
                0x00000030       0x10 build/default/production/_ext/1954962658/AutoIP.o
 .gnu.attributes
                0x00000040       0x10 build/default/production/_ext/1954962658/BerkeleyAPI.o
 .gnu.attributes
                0x00000050       0x10 build/default/production/_ext/1954962658/BigInt.o
 .gnu.attributes
                0x00000060       0x10 build/default/production/_ext/1954962658/DHCP.o
 .gnu.attributes
                0x00000070       0x10 build/default/production/_ext/1954962658/DHCPs.o
 .gnu.attributes
                0x00000080       0x10 build/default/production/_ext/1954962658/DNS.o
 .gnu.attributes
                0x00000090       0x10 build/default/production/_ext/1954962658/DNSs.o
 .gnu.attributes
                0x000000a0       0x10 build/default/production/_ext/1954962658/Delay.o
 .gnu.attributes
                0x000000b0       0x10 build/default/production/_ext/1954962658/DynDNS.o
 .gnu.attributes
                0x000000c0       0x10 build/default/production/_ext/1954962658/FTP.o
 .gnu.attributes
                0x000000d0       0x10 build/default/production/_ext/1954962658/HTTP2.o
 .gnu.attributes
                0x000000e0       0x10 build/default/production/_ext/1954962658/Hashes.o
 .gnu.attributes
                0x000000f0       0x10 build/default/production/_ext/1954962658/Helpers.o
 .gnu.attributes
                0x00000100       0x10 build/default/production/_ext/1954962658/ICMP.o
 .gnu.attributes
                0x00000110       0x10 build/default/production/_ext/1954962658/IP.o
 .gnu.attributes
                0x00000120       0x10 build/default/production/_ext/1954962658/LCDBlocking.o
 .gnu.attributes
                0x00000130       0x10 build/default/production/_ext/1954962658/MPFS2.o
 .gnu.attributes
                0x00000140       0x10 build/default/production/_ext/1954962658/NBNS.o
 .gnu.attributes
                0x00000150       0x10 build/default/production/_ext/1954962658/RSA.o
 .gnu.attributes
                0x00000160       0x10 build/default/production/_ext/1954962658/Random.o
 .gnu.attributes
                0x00000170       0x10 build/default/production/_ext/1954962658/Reboot.o
 .gnu.attributes
                0x00000180       0x10 build/default/production/_ext/1954962658/SMTP.o
 .gnu.attributes
                0x00000190       0x10 build/default/production/_ext/1954962658/SNMP.o
 .gnu.attributes
                0x000001a0       0x10 build/default/production/_ext/1954962658/SNTP.o
 .gnu.attributes
                0x000001b0       0x10 build/default/production/_ext/1954962658/SPIEEPROM.o
 .gnu.attributes
                0x000001c0       0x10 build/default/production/_ext/1954962658/SPIFlash.o
 .gnu.attributes
                0x000001d0       0x10 build/default/production/_ext/1954962658/SPIRAM.o
 .gnu.attributes
                0x000001e0       0x10 build/default/production/_ext/1954962658/SSL.o
 .gnu.attributes
                0x000001f0       0x10 build/default/production/_ext/1954962658/StackTsk.o
 .gnu.attributes
                0x00000200       0x10 build/default/production/_ext/1954962658/TCP.o
 .gnu.attributes
                0x00000210       0x10 build/default/production/_ext/1954962658/TCPPerformanceTest.o
 .gnu.attributes
                0x00000220       0x10 build/default/production/_ext/1954962658/TFTPc.o
 .gnu.attributes
                0x00000230       0x10 build/default/production/_ext/1954962658/Telnet.o
 .gnu.attributes
                0x00000240       0x10 build/default/production/_ext/1954962658/Tick.o
 .gnu.attributes
                0x00000250       0x10 build/default/production/_ext/1954962658/UART.o
 .gnu.attributes
                0x00000260       0x10 build/default/production/_ext/1954962658/UART2TCPBridge.o
 .gnu.attributes
                0x00000270       0x10 build/default/production/_ext/1954962658/UDP.o
 .gnu.attributes
                0x00000280       0x10 build/default/production/_ext/1954962658/UDPPerformanceTest.o
 .gnu.attributes
                0x00000290       0x10 build/default/production/_ext/1954962658/ZeroconfHelper.o
 .gnu.attributes
                0x000002a0       0x10 build/default/production/_ext/1954962658/ZeroconfLinkLocal.o
 .gnu.attributes
                0x000002b0       0x10 build/default/production/_ext/1954962658/ZeroconfMulticastDNS.o
 .gnu.attributes
                0x000002c0       0x10 build/default/production/_ext/243675038/WFConnectionAlgorithm.o
 .gnu.attributes
                0x000002d0       0x10 build/default/production/_ext/243675038/WFConnectionManager.o
 .gnu.attributes
                0x000002e0       0x10 build/default/production/_ext/243675038/WFConnectionProfile.o
 .gnu.attributes
                0x000002f0       0x10 build/default/production/_ext/243675038/WFConsole.o
 .gnu.attributes
                0x00000300       0x10 build/default/production/_ext/243675038/WFConsoleIfconfig.o
 .gnu.attributes
                0x00000310       0x10 build/default/production/_ext/243675038/WFConsoleIwconfig.o
 .gnu.attributes
                0x00000320       0x10 build/default/production/_ext/243675038/WFConsoleIwpriv.o
 .gnu.attributes
                0x00000330       0x10 build/default/production/_ext/243675038/WFConsoleMsgHandler.o
 .gnu.attributes
                0x00000340       0x10 build/default/production/_ext/243675038/WFConsoleMsgs.o
 .gnu.attributes
                0x00000350       0x10 build/default/production/_ext/243675038/WFDriverCom.o
 .gnu.attributes
                0x00000360       0x10 build/default/production/_ext/243675038/WFDriverRaw.o
 .gnu.attributes
                0x00000370       0x10 build/default/production/_ext/243675038/WFEasyConfig.o
 .gnu.attributes
                0x00000380       0x10 build/default/production/_ext/243675038/WFEventHandler.o
 .gnu.attributes
                0x00000390       0x10 build/default/production/_ext/243675038/WFInit.o
 .gnu.attributes
                0x000003a0       0x10 build/default/production/_ext/243675038/WFMac.o
 .gnu.attributes
                0x000003b0       0x10 build/default/production/_ext/243675038/WFMgmtMsg.o
 .gnu.attributes
                0x000003c0       0x10 build/default/production/_ext/243675038/WFParamMsg.o
 .gnu.attributes
                0x000003d0       0x10 build/default/production/_ext/243675038/WFPowerSave.o
 .gnu.attributes
                0x000003e0       0x10 build/default/production/_ext/243675038/WFScan.o
 .gnu.attributes
                0x000003f0       0x10 build/default/production/_ext/243675038/WFTxPower.o
 .gnu.attributes
                0x00000400       0x10 build/default/production/_ext/243675038/WF_Eint.o
 .gnu.attributes
                0x00000410       0x10 build/default/production/_ext/243675038/WF_Spi.o
 .gnu.attributes
                0x00000420       0x10 build/default/production/_ext/1472/CustomHTTPApp.o
 .gnu.attributes
                0x00000430       0x10 build/default/production/_ext/1472/MPFSImg2.o
 .gnu.attributes
                0x00000440       0x10 build/default/production/_ext/1472/MainDemo.o
 .gnu.attributes
                0x00000450       0x10 build/default/production/_ext/1472/WF_Config.o
 .gnu.attributes
                0x00000460       0x10 build/default/production/_ext/1472/IperfApp.o
 .gnu.attributes
                0x00000470       0x10 c:/program files (x86)/microchip/mplab c32 suite/bin/../lib/gcc/pic32mx/4.5.1\libgcc.a(_udivdi3.o)
 .gnu.attributes
                0x00000480       0x10 c:/program files (x86)/microchip/mplab c32 suite/bin/../lib/gcc/pic32mx/4.5.1/../../../../pic32mx/lib\libc.a(_iob.o)
 .gnu.attributes
                0x00000490       0x10 c:/program files (x86)/microchip/mplab c32 suite/bin/../lib/gcc/pic32mx/4.5.1/../../../../pic32mx/lib\libc.a(fwrite.o)
 .gnu.attributes
                0x000004a0       0x10 c:/program files (x86)/microchip/mplab c32 suite/bin/../lib/gcc/pic32mx/4.5.1/../../../../pic32mx/lib\libc.a(atol.o)
 .gnu.attributes
                0x000004b0       0x10 c:/program files (x86)/microchip/mplab c32 suite/bin/../lib/gcc/pic32mx/4.5.1/../../../../pic32mx/lib\libc.a(ctype.o)
 .gnu.attributes
                0x000004c0       0x10 c:/program files (x86)/microchip/mplab c32 suite/bin/../lib/gcc/pic32mx/4.5.1/../../../../pic32mx/lib\libc.a(puts.o)
 .gnu.attributes
                0x000004d0       0x10 c:/program files (x86)/microchip/mplab c32 suite/bin/../lib/gcc/pic32mx/4.5.1/../../../../pic32mx/lib\libc.a(printf_cdnopsuxX.eo)
 .gnu.attributes
                0x000004e0       0x10 c:/program files (x86)/microchip/mplab c32 suite/bin/../lib/gcc/pic32mx/4.5.1/../../../../pic32mx/lib\libc.a(sprintf_cdnopsuxX.eo)
 .gnu.attributes
                0x000004f0       0x10 c:/program files (x86)/microchip/mplab c32 suite/bin/../lib/gcc/pic32mx/4.5.1/../../../../pic32mx/lib\libc.a(default-bootstrap-exception-handler.o)
 .gnu.attributes
                0x00000500       0x10 c:/program files (x86)/microchip/mplab c32 suite/bin/../lib/gcc/pic32mx/4.5.1/../../../../pic32mx/lib\libc.a(default-on-reset.o)
 .gnu.attributes
                0x00000510       0x10 c:/program files (x86)/microchip/mplab c32 suite/bin/../lib/gcc/pic32mx/4.5.1/../../../../pic32mx/lib\libc.a(default-on-bootstrap.o)
 .gnu.attributes
                0x00000520       0x10 c:/program files (x86)/microchip/mplab c32 suite/bin/../lib/gcc/pic32mx/4.5.1/../../../../pic32mx/lib\libc.a(fflush.o)
 .gnu.attributes
                0x00000530       0x10 c:/program files (x86)/microchip/mplab c32 suite/bin/../lib/gcc/pic32mx/4.5.1/../../../../pic32mx/lib\libc.a(_fputc_simple.o)
 .gnu.attributes
                0x00000540       0x10 c:/program files (x86)/microchip/mplab c32 suite/bin/../lib/gcc/pic32mx/4.5.1/../../../../pic32mx/lib\libc.a(fseek.o)
 .gnu.attributes
                0x00000550       0x10 c:/program files (x86)/microchip/mplab c32 suite/bin/../lib/gcc/pic32mx/4.5.1/../../../../pic32mx/lib\libc.a(doprnt_cdnopsuxX.eo)
 .gnu.attributes
                0x00000560       0x10 c:/program files (x86)/microchip/mplab c32 suite/bin/../lib/gcc/pic32mx/4.5.1/../../../../pic32mx/lib\libc.a(write.o)
 .gnu.attributes
                0x00000570       0x10 c:/program files (x86)/microchip/mplab c32 suite/bin/../lib/gcc/pic32mx/4.5.1/../../../../pic32mx/lib\libc.a(lseek.o)
 .gnu.attributes
                0x00000580       0x10 c:/program files (x86)/microchip/mplab c32 suite/bin/../lib/gcc/pic32mx/4.5.1/../../../../pic32mx/lib\libc.a(_flsbuf_simple.o)
 .gnu.attributes
                0x00000590       0x10 c:/program files (x86)/microchip/mplab c32 suite/bin/../lib/gcc/pic32mx/4.5.1/../../../../pic32mx/lib\libmchp_peripheral_32MX695F512H.a(soft_reset_lib.o)
 .gnu.attributes
                0x000005a0       0x10 c:/program files (x86)/microchip/mplab c32 suite/bin/../lib/gcc/pic32mx/4.5.1/../../../../pic32mx/lib\libmchp_peripheral_32MX695F512H.a(pcache.o)
 .gnu.attributes
                0x000005b0       0x10 c:/program files (x86)/microchip/mplab c32 suite/bin/../lib/gcc/pic32mx/4.5.1/../../../../pic32mx/lib\libmchp_peripheral_32MX695F512H.a(int_disable_interrupts_lib.o)
 .gnu.attributes
                0x000005c0       0x10 c:/program files (x86)/microchip/mplab c32 suite/bin/../lib/gcc/pic32mx/4.5.1/../../../../pic32mx/lib\libmchp_peripheral_32MX695F512H.a(int_restore_interrupts_lib.o)
 .gnu.attributes
                0x000005d0       0x10 c:/program files (x86)/microchip/mplab c32 suite/bin/../lib/gcc/pic32mx/4.5.1/../../../../pic32mx/lib\libmchp_peripheral_32MX695F512H.a(int_enable_mv_int_lib.o)
 .gnu.attributes
                0x000005e0       0x10 c:/program files (x86)/microchip/mplab c32 suite/bin/../lib/gcc/pic32mx/4.5.1/../../../../pic32mx/lib\libmchp_peripheral_32MX695F512H.a(uart_lib.o)
 .gnu.attributes
                0x000005f0       0x10 c:/program files (x86)/microchip/mplab c32 suite/bin/../lib/gcc/pic32mx/4.5.1/../../../../pic32mx/lib\libmchp_peripheral_32MX695F512H.a(int_enable_interrupts_lib.o)
 .gnu.attributes
                0x00000600       0x10 c:/program files (x86)/microchip/mplab c32 suite/bin/../lib/gcc/pic32mx/4.5.1\libgcc.a(_umoddi3.o)
OUTPUT(dist/default/production/WiFi_Comm_Demo.production.elf elf32-tradlittlemips)
LOAD stack
LOAD data_init

.stack          0xa0000af0      0x400
 .stack         0xa0000af0      0x400 stack

.bss            0xa00003bc      0x464
 .bss           0xa00003bc      0x360 build/default/production/_ext/1954962658/ZeroconfMulticastDNS.o
 .bss           0xa000071c      0x104 build/default/production/_ext/1954962658/TCP.o

.data           0xa0000820      0x138
 .data          0xa0000820       0xa0 c:/program files (x86)/microchip/mplab c32 suite/bin/../lib/gcc/pic32mx/4.5.1/../../../../pic32mx/lib\libc.a(_iob.o)
                0xa0000820                _iob
 .data          0xa00008c0       0x98 build/default/production/_ext/1472/WF_Config.o
                0xa00008c0                CPElements
                0xa0000930                CAElements

.bss            0xa0000958       0xf4
 .bss           0xa0000958       0x78 build/default/production/_ext/1954962658/MPFS2.o
 .bss           0xa00009d0       0x40 c:/program files (x86)/microchip/mplab c32 suite/bin/../lib/gcc/pic32mx/4.5.1/../../../../pic32mx/lib\libc.a(_iob.o)
                0xa00009d0                _sibuf
                0xa00009f0                _sobuf
 .bss           0xa0000a10       0x3c build/default/production/_ext/1472/CustomHTTPApp.o

.data           0xa0000a4c       0x34
 .data          0xa0000a4c       0x34 build/default/production/_ext/1472/MainDemo.o
                0xa0000a4c                AppConfig

.bss            0xa0000a80       0x50
 .bss           0xa0000a80       0x28 build/default/production/_ext/1954962658/ARP.o
 .bss           0xa0000aa8       0x28 build/default/production/_ext/1954962658/DHCP.o

.pbss           0xa0000ad0        0x4
 .pbss          0xa0000ad0        0x2 build/default/production/_ext/1954962658/TCP.o
 .pbss          0xa0000ad2        0x2 build/default/production/_ext/1954962658/UDP.o

.bss%z1         0x00000000        0x0
 .bss           0x00000000        0x0 c:/program files (x86)/microchip/mplab c32 suite/bin/../lib/gcc/pic32mx/4.5.1/../../../../pic32mx/lib/./proc/32MX695F512H\processor.o

.data%z2        0x00000000        0x0
 .data          0x00000000        0x0 c:/program files (x86)/microchip/mplab c32 suite/bin/../lib/gcc/pic32mx/4.5.1/../../../../pic32mx/lib/./proc/32MX695F512H\processor.o

.mdebug.abi32%z3
                0x00000000        0x0
 .mdebug.abi32  0x00000000        0x0 c:/program files (x86)/microchip/mplab c32 suite/bin/../lib/gcc/pic32mx/4.5.1\libgcc.a(_umoddi3.o)

.bss%z4         0x00000000        0x0
 .bss           0x00000000        0x0 c:/program files (x86)/microchip/mplab c32 suite/bin/../lib/gcc/pic32mx/4.5.1\libgcc.a(_umoddi3.o)

.data%z5        0x00000000        0x0
 .data          0x00000000        0x0 c:/program files (x86)/microchip/mplab c32 suite/bin/../lib/gcc/pic32mx/4.5.1\libgcc.a(_umoddi3.o)

.mdebug.abi32%z6
                0x00000000        0x0
 .mdebug.abi32  0x00000000        0x0 c:/program files (x86)/microchip/mplab c32 suite/bin/../lib/gcc/pic32mx/4.5.1/../../../../pic32mx/lib\libmchp_peripheral_32MX695F512H.a(int_enable_interrupts_lib.o)

.bss%z7         0x00000000        0x0
 .bss           0x00000000        0x0 c:/program files (x86)/microchip/mplab c32 suite/bin/../lib/gcc/pic32mx/4.5.1/../../../../pic32mx/lib\libmchp_peripheral_32MX695F512H.a(int_enable_interrupts_lib.o)

.data%z8        0x00000000        0x0
 .data          0x00000000        0x0 c:/program files (x86)/microchip/mplab c32 suite/bin/../lib/gcc/pic32mx/4.5.1/../../../../pic32mx/lib\libmchp_peripheral_32MX695F512H.a(int_enable_interrupts_lib.o)

.mdebug.abi32%z9
                0x00000000        0x0
 .mdebug.abi32  0x00000000        0x0 c:/program files (x86)/microchip/mplab c32 suite/bin/../lib/gcc/pic32mx/4.5.1/../../../../pic32mx/lib\libmchp_peripheral_32MX695F512H.a(uart_lib.o)

.bss%z10        0x00000000        0x0
 .bss           0x00000000        0x0 c:/program files (x86)/microchip/mplab c32 suite/bin/../lib/gcc/pic32mx/4.5.1/../../../../pic32mx/lib\libmchp_peripheral_32MX695F512H.a(uart_lib.o)

.data%z11       0x00000000        0x0
 .data          0x00000000        0x0 c:/program files (x86)/microchip/mplab c32 suite/bin/../lib/gcc/pic32mx/4.5.1/../../../../pic32mx/lib\libmchp_peripheral_32MX695F512H.a(uart_lib.o)

.mdebug.abi32%z12
                0x00000000        0x0
 .mdebug.abi32  0x00000000        0x0 c:/program files (x86)/microchip/mplab c32 suite/bin/../lib/gcc/pic32mx/4.5.1/../../../../pic32mx/lib\libmchp_peripheral_32MX695F512H.a(int_enable_mv_int_lib.o)

.bss%z13        0x00000000        0x0
 .bss           0x00000000        0x0 c:/program files (x86)/microchip/mplab c32 suite/bin/../lib/gcc/pic32mx/4.5.1/../../../../pic32mx/lib\libmchp_peripheral_32MX695F512H.a(int_enable_mv_int_lib.o)

.data%z14       0x00000000        0x0
 .data          0x00000000        0x0 c:/program files (x86)/microchip/mplab c32 suite/bin/../lib/gcc/pic32mx/4.5.1/../../../../pic32mx/lib\libmchp_peripheral_32MX695F512H.a(int_enable_mv_int_lib.o)

.mdebug.abi32%z15
                0x00000000        0x0
 .mdebug.abi32  0x00000000        0x0 c:/program files (x86)/microchip/mplab c32 suite/bin/../lib/gcc/pic32mx/4.5.1/../../../../pic32mx/lib\libmchp_peripheral_32MX695F512H.a(int_restore_interrupts_lib.o)

.bss%z16        0x00000000        0x0
 .bss           0x00000000        0x0 c:/program files (x86)/microchip/mplab c32 suite/bin/../lib/gcc/pic32mx/4.5.1/../../../../pic32mx/lib\libmchp_peripheral_32MX695F512H.a(int_restore_interrupts_lib.o)

.data%z17       0x00000000        0x0
 .data          0x00000000        0x0 c:/program files (x86)/microchip/mplab c32 suite/bin/../lib/gcc/pic32mx/4.5.1/../../../../pic32mx/lib\libmchp_peripheral_32MX695F512H.a(int_restore_interrupts_lib.o)

.mdebug.abi32%z18
                0x00000000        0x0
 .mdebug.abi32  0x00000000        0x0 c:/program files (x86)/microchip/mplab c32 suite/bin/../lib/gcc/pic32mx/4.5.1/../../../../pic32mx/lib\libmchp_peripheral_32MX695F512H.a(int_disable_interrupts_lib.o)

.bss%z19        0x00000000        0x0
 .bss           0x00000000        0x0 c:/program files (x86)/microchip/mplab c32 suite/bin/../lib/gcc/pic32mx/4.5.1/../../../../pic32mx/lib\libmchp_peripheral_32MX695F512H.a(int_disable_interrupts_lib.o)

.data%z20       0x00000000        0x0
 .data          0x00000000        0x0 c:/program files (x86)/microchip/mplab c32 suite/bin/../lib/gcc/pic32mx/4.5.1/../../../../pic32mx/lib\libmchp_peripheral_32MX695F512H.a(int_disable_interrupts_lib.o)

.mdebug.abi32%z21
                0x00000000        0x0
 .mdebug.abi32  0x00000000        0x0 c:/program files (x86)/microchip/mplab c32 suite/bin/../lib/gcc/pic32mx/4.5.1/../../../../pic32mx/lib\libmchp_peripheral_32MX695F512H.a(pcache.o)

.bss%z22        0x00000000        0x0
 .bss           0x00000000        0x0 c:/program files (x86)/microchip/mplab c32 suite/bin/../lib/gcc/pic32mx/4.5.1/../../../../pic32mx/lib\libmchp_peripheral_32MX695F512H.a(pcache.o)

.data%z23       0x00000000        0x0
 .data          0x00000000        0x0 c:/program files (x86)/microchip/mplab c32 suite/bin/../lib/gcc/pic32mx/4.5.1/../../../../pic32mx/lib\libmchp_peripheral_32MX695F512H.a(pcache.o)

.mdebug.abi32%z24
                0x00000000        0x0
 .mdebug.abi32  0x00000000        0x0 c:/program files (x86)/microchip/mplab c32 suite/bin/../lib/gcc/pic32mx/4.5.1/../../../../pic32mx/lib\libmchp_peripheral_32MX695F512H.a(soft_reset_lib.o)

.bss%z25        0x00000000        0x0
 .bss           0x00000000        0x0 c:/program files (x86)/microchip/mplab c32 suite/bin/../lib/gcc/pic32mx/4.5.1/../../../../pic32mx/lib\libmchp_peripheral_32MX695F512H.a(soft_reset_lib.o)

.data%z26       0x00000000        0x0
 .data          0x00000000        0x0 c:/program files (x86)/microchip/mplab c32 suite/bin/../lib/gcc/pic32mx/4.5.1/../../../../pic32mx/lib\libmchp_peripheral_32MX695F512H.a(soft_reset_lib.o)

.mdebug.abi32%z27
                0x00000000        0x0
 .mdebug.abi32  0x00000000        0x0 c:/program files (x86)/microchip/mplab c32 suite/bin/../lib/gcc/pic32mx/4.5.1/../../../../pic32mx/lib\libc.a(_flsbuf_simple.o)

.bss%z28        0x00000000        0x0
 .bss           0x00000000        0x0 c:/program files (x86)/microchip/mplab c32 suite/bin/../lib/gcc/pic32mx/4.5.1/../../../../pic32mx/lib\libc.a(_flsbuf_simple.o)

.data%z29       0x00000000        0x0
 .data          0x00000000        0x0 c:/program files (x86)/microchip/mplab c32 suite/bin/../lib/gcc/pic32mx/4.5.1/../../../../pic32mx/lib\libc.a(_flsbuf_simple.o)

.mdebug.abi32%z30
                0x00000000        0x0
 .mdebug.abi32  0x00000000        0x0 c:/program files (x86)/microchip/mplab c32 suite/bin/../lib/gcc/pic32mx/4.5.1/../../../../pic32mx/lib\libc.a(lseek.o)

.bss%z31        0x00000000        0x0
 .bss           0x00000000        0x0 c:/program files (x86)/microchip/mplab c32 suite/bin/../lib/gcc/pic32mx/4.5.1/../../../../pic32mx/lib\libc.a(lseek.o)

.data%z32       0x00000000        0x0
 .data          0x00000000        0x0 c:/program files (x86)/microchip/mplab c32 suite/bin/../lib/gcc/pic32mx/4.5.1/../../../../pic32mx/lib\libc.a(lseek.o)

.mdebug.abi32%z33
                0x00000000        0x0
 .mdebug.abi32  0x00000000        0x0 c:/program files (x86)/microchip/mplab c32 suite/bin/../lib/gcc/pic32mx/4.5.1/../../../../pic32mx/lib\libc.a(write.o)

.bss%z34        0x00000000        0x0
 .bss           0x00000000        0x0 c:/program files (x86)/microchip/mplab c32 suite/bin/../lib/gcc/pic32mx/4.5.1/../../../../pic32mx/lib\libc.a(write.o)

.data%z35       0x00000000        0x0
 .data          0x00000000        0x0 c:/program files (x86)/microchip/mplab c32 suite/bin/../lib/gcc/pic32mx/4.5.1/../../../../pic32mx/lib\libc.a(write.o)

.mdebug.abi32%z36
                0x00000000        0x0
 .mdebug.abi32  0x00000000        0x0 c:/program files (x86)/microchip/mplab c32 suite/bin/../lib/gcc/pic32mx/4.5.1/../../../../pic32mx/lib\libc.a(doprnt_cdnopsuxX.eo)

.bss%z37        0x00000000        0x0
 .bss           0x00000000        0x0 c:/program files (x86)/microchip/mplab c32 suite/bin/../lib/gcc/pic32mx/4.5.1/../../../../pic32mx/lib\libc.a(doprnt_cdnopsuxX.eo)

.data%z38       0x00000000        0x0
 .data          0x00000000        0x0 c:/program files (x86)/microchip/mplab c32 suite/bin/../lib/gcc/pic32mx/4.5.1/../../../../pic32mx/lib\libc.a(doprnt_cdnopsuxX.eo)

.mdebug.abi32%z39
                0x00000000        0x0
 .mdebug.abi32  0x00000000        0x0 c:/program files (x86)/microchip/mplab c32 suite/bin/../lib/gcc/pic32mx/4.5.1/../../../../pic32mx/lib\libc.a(fseek.o)

.bss%z40        0x00000000        0x0
 .bss           0x00000000        0x0 c:/program files (x86)/microchip/mplab c32 suite/bin/../lib/gcc/pic32mx/4.5.1/../../../../pic32mx/lib\libc.a(fseek.o)

.data%z41       0x00000000        0x0
 .data          0x00000000        0x0 c:/program files (x86)/microchip/mplab c32 suite/bin/../lib/gcc/pic32mx/4.5.1/../../../../pic32mx/lib\libc.a(fseek.o)

.mdebug.abi32%z42
                0x00000000        0x0
 .mdebug.abi32  0x00000000        0x0 c:/program files (x86)/microchip/mplab c32 suite/bin/../lib/gcc/pic32mx/4.5.1/../../../../pic32mx/lib\libc.a(_fputc_simple.o)

.bss%z43        0x00000000        0x0
 .bss           0x00000000        0x0 c:/program files (x86)/microchip/mplab c32 suite/bin/../lib/gcc/pic32mx/4.5.1/../../../../pic32mx/lib\libc.a(_fputc_simple.o)

.data%z44       0x00000000        0x0
 .data          0x00000000        0x0 c:/program files (x86)/microchip/mplab c32 suite/bin/../lib/gcc/pic32mx/4.5.1/../../../../pic32mx/lib\libc.a(_fputc_simple.o)

.mdebug.abi32%z45
                0x00000000        0x0
 .mdebug.abi32  0x00000000        0x0 c:/program files (x86)/microchip/mplab c32 suite/bin/../lib/gcc/pic32mx/4.5.1/../../../../pic32mx/lib\libc.a(fflush.o)

.bss%z46        0x00000000        0x0
 .bss           0x00000000        0x0 c:/program files (x86)/microchip/mplab c32 suite/bin/../lib/gcc/pic32mx/4.5.1/../../../../pic32mx/lib\libc.a(fflush.o)

.data%z47       0x00000000        0x0
 .data          0x00000000        0x0 c:/program files (x86)/microchip/mplab c32 suite/bin/../lib/gcc/pic32mx/4.5.1/../../../../pic32mx/lib\libc.a(fflush.o)

.bss%z48        0x00000000        0x0
 .bss           0x00000000        0x0 c:/program files (x86)/microchip/mplab c32 suite/bin/../lib/gcc/pic32mx/4.5.1/../../../../pic32mx/lib\libc.a(default-nmi-handler.o)

.data%z49       0x00000000        0x0
 .data          0x00000000        0x0 c:/program files (x86)/microchip/mplab c32 suite/bin/../lib/gcc/pic32mx/4.5.1/../../../../pic32mx/lib\libc.a(default-nmi-handler.o)

.mdebug.abi32%z50
                0x00000000        0x0
 .mdebug.abi32  0x00000000        0x0 c:/program files (x86)/microchip/mplab c32 suite/bin/../lib/gcc/pic32mx/4.5.1/../../../../pic32mx/lib\libc.a(default-on-bootstrap.o)

.bss%z51        0x00000000        0x0
 .bss           0x00000000        0x0 c:/program files (x86)/microchip/mplab c32 suite/bin/../lib/gcc/pic32mx/4.5.1/../../../../pic32mx/lib\libc.a(default-on-bootstrap.o)

.data%z52       0x00000000        0x0
 .data          0x00000000        0x0 c:/program files (x86)/microchip/mplab c32 suite/bin/../lib/gcc/pic32mx/4.5.1/../../../../pic32mx/lib\libc.a(default-on-bootstrap.o)

.mdebug.abi32%z53
                0x00000000        0x0
 .mdebug.abi32  0x00000000        0x0 c:/program files (x86)/microchip/mplab c32 suite/bin/../lib/gcc/pic32mx/4.5.1/../../../../pic32mx/lib\libc.a(default-on-reset.o)

.bss%z54        0x00000000        0x0
 .bss           0x00000000        0x0 c:/program files (x86)/microchip/mplab c32 suite/bin/../lib/gcc/pic32mx/4.5.1/../../../../pic32mx/lib\libc.a(default-on-reset.o)

.data%z55       0x00000000        0x0
 .data          0x00000000        0x0 c:/program files (x86)/microchip/mplab c32 suite/bin/../lib/gcc/pic32mx/4.5.1/../../../../pic32mx/lib\libc.a(default-on-reset.o)

.mdebug.abi32%z56
                0x00000000        0x0
 .mdebug.abi32  0x00000000        0x0 c:/program files (x86)/microchip/mplab c32 suite/bin/../lib/gcc/pic32mx/4.5.1/../../../../pic32mx/lib\libc.a(default-bootstrap-exception-handler.o)

.bss%z57        0x00000000        0x0
 .bss           0x00000000        0x0 c:/program files (x86)/microchip/mplab c32 suite/bin/../lib/gcc/pic32mx/4.5.1/../../../../pic32mx/lib\libc.a(default-bootstrap-exception-handler.o)

.data%z58       0x00000000        0x0
 .data          0x00000000        0x0 c:/program files (x86)/microchip/mplab c32 suite/bin/../lib/gcc/pic32mx/4.5.1/../../../../pic32mx/lib\libc.a(default-bootstrap-exception-handler.o)

.mdebug.abi32%z59
                0x00000000        0x0
 .mdebug.abi32  0x00000000        0x0 c:/program files (x86)/microchip/mplab c32 suite/bin/../lib/gcc/pic32mx/4.5.1/../../../../pic32mx/lib\libc.a(sprintf_cdnopsuxX.eo)

.bss%z60        0x00000000        0x0
 .bss           0x00000000        0x0 c:/program files (x86)/microchip/mplab c32 suite/bin/../lib/gcc/pic32mx/4.5.1/../../../../pic32mx/lib\libc.a(sprintf_cdnopsuxX.eo)

.data%z61       0x00000000        0x0
 .data          0x00000000        0x0 c:/program files (x86)/microchip/mplab c32 suite/bin/../lib/gcc/pic32mx/4.5.1/../../../../pic32mx/lib\libc.a(sprintf_cdnopsuxX.eo)

.mdebug.abi32%z62
                0x00000000        0x0
 .mdebug.abi32  0x00000000        0x0 c:/program files (x86)/microchip/mplab c32 suite/bin/../lib/gcc/pic32mx/4.5.1/../../../../pic32mx/lib\libc.a(printf_cdnopsuxX.eo)

.bss%z63        0x00000000        0x0
 .bss           0x00000000        0x0 c:/program files (x86)/microchip/mplab c32 suite/bin/../lib/gcc/pic32mx/4.5.1/../../../../pic32mx/lib\libc.a(printf_cdnopsuxX.eo)

.data%z64       0x00000000        0x0
 .data          0x00000000        0x0 c:/program files (x86)/microchip/mplab c32 suite/bin/../lib/gcc/pic32mx/4.5.1/../../../../pic32mx/lib\libc.a(printf_cdnopsuxX.eo)

.mdebug.abi32%z65
                0x00000000        0x0
 .mdebug.abi32  0x00000000        0x0 c:/program files (x86)/microchip/mplab c32 suite/bin/../lib/gcc/pic32mx/4.5.1/../../../../pic32mx/lib\libc.a(puts.o)

.bss%z66        0x00000000        0x0
 .bss           0x00000000        0x0 c:/program files (x86)/microchip/mplab c32 suite/bin/../lib/gcc/pic32mx/4.5.1/../../../../pic32mx/lib\libc.a(puts.o)

.data%z67       0x00000000        0x0
 .data          0x00000000        0x0 c:/program files (x86)/microchip/mplab c32 suite/bin/../lib/gcc/pic32mx/4.5.1/../../../../pic32mx/lib\libc.a(puts.o)

.mdebug.abi32%z68
                0x00000000        0x0
 .mdebug.abi32  0x00000000        0x0 c:/program files (x86)/microchip/mplab c32 suite/bin/../lib/gcc/pic32mx/4.5.1/../../../../pic32mx/lib\libc.a(ctype.o)

.bss%z69        0x00000000        0x0
 .bss           0x00000000        0x0 c:/program files (x86)/microchip/mplab c32 suite/bin/../lib/gcc/pic32mx/4.5.1/../../../../pic32mx/lib\libc.a(ctype.o)

.data%z70       0x00000000        0x0
 .data          0x00000000        0x0 c:/program files (x86)/microchip/mplab c32 suite/bin/../lib/gcc/pic32mx/4.5.1/../../../../pic32mx/lib\libc.a(ctype.o)

.mdebug.abi32%z71
                0x00000000        0x0
 .mdebug.abi32  0x00000000        0x0 c:/program files (x86)/microchip/mplab c32 suite/bin/../lib/gcc/pic32mx/4.5.1/../../../../pic32mx/lib\libc.a(atol.o)

.bss%z72        0x00000000        0x0
 .bss           0x00000000        0x0 c:/program files (x86)/microchip/mplab c32 suite/bin/../lib/gcc/pic32mx/4.5.1/../../../../pic32mx/lib\libc.a(atol.o)

.data%z73       0x00000000        0x0
 .data          0x00000000        0x0 c:/program files (x86)/microchip/mplab c32 suite/bin/../lib/gcc/pic32mx/4.5.1/../../../../pic32mx/lib\libc.a(atol.o)

.mdebug.abi32%z74
                0x00000000        0x0
 .mdebug.abi32  0x00000000        0x0 c:/program files (x86)/microchip/mplab c32 suite/bin/../lib/gcc/pic32mx/4.5.1/../../../../pic32mx/lib\libc.a(fwrite.o)

.bss%z75        0x00000000        0x0
 .bss           0x00000000        0x0 c:/program files (x86)/microchip/mplab c32 suite/bin/../lib/gcc/pic32mx/4.5.1/../../../../pic32mx/lib\libc.a(fwrite.o)

.data%z76       0x00000000        0x0
 .data          0x00000000        0x0 c:/program files (x86)/microchip/mplab c32 suite/bin/../lib/gcc/pic32mx/4.5.1/../../../../pic32mx/lib\libc.a(fwrite.o)

.mdebug.abi32%z77
                0x00000000        0x0
 .mdebug.abi32  0x00000000        0x0 c:/program files (x86)/microchip/mplab c32 suite/bin/../lib/gcc/pic32mx/4.5.1/../../../../pic32mx/lib\libc.a(_iob.o)

.bss%z78        0x00000000        0x0
 .bss           0x00000000        0x0 c:/program files (x86)/microchip/mplab c32 suite/bin/../lib/gcc/pic32mx/4.5.1/../../../../pic32mx/lib\libc.a(general-exception.o)

.data%z79       0x00000000        0x0
 .data          0x00000000        0x0 c:/program files (x86)/microchip/mplab c32 suite/bin/../lib/gcc/pic32mx/4.5.1/../../../../pic32mx/lib\libc.a(general-exception.o)

.bss%z80        0x00000000        0x0
 .bss           0x00000000        0x0 c:/program files (x86)/microchip/mplab c32 suite/bin/../lib/gcc/pic32mx/4.5.1/../../../../pic32mx/lib\libc.a(strlen.o)

.data%z81       0x00000000        0x0
 .data          0x00000000        0x0 c:/program files (x86)/microchip/mplab c32 suite/bin/../lib/gcc/pic32mx/4.5.1/../../../../pic32mx/lib\libc.a(strlen.o)

.bss%z82        0x00000000        0x0
 .bss           0x00000000        0x0 c:/program files (x86)/microchip/mplab c32 suite/bin/../lib/gcc/pic32mx/4.5.1/../../../../pic32mx/lib\libc.a(strcmp.o)

.data%z83       0x00000000        0x0
 .data          0x00000000        0x0 c:/program files (x86)/microchip/mplab c32 suite/bin/../lib/gcc/pic32mx/4.5.1/../../../../pic32mx/lib\libc.a(strcmp.o)

.bss%z84        0x00000000        0x0
 .bss           0x00000000        0x0 c:/program files (x86)/microchip/mplab c32 suite/bin/../lib/gcc/pic32mx/4.5.1/../../../../pic32mx/lib\libc.a(memset.o)

.data%z85       0x00000000        0x0
 .data          0x00000000        0x0 c:/program files (x86)/microchip/mplab c32 suite/bin/../lib/gcc/pic32mx/4.5.1/../../../../pic32mx/lib\libc.a(memset.o)

.bss%z86        0x00000000        0x0
 .bss           0x00000000        0x0 c:/program files (x86)/microchip/mplab c32 suite/bin/../lib/gcc/pic32mx/4.5.1/../../../../pic32mx/lib\libc.a(memcpy.o)

.data%z87       0x00000000        0x0
 .data          0x00000000        0x0 c:/program files (x86)/microchip/mplab c32 suite/bin/../lib/gcc/pic32mx/4.5.1/../../../../pic32mx/lib\libc.a(memcpy.o)

.bss%z88        0x00000000        0x0
 .bss           0x00000000        0x0 c:/program files (x86)/microchip/mplab c32 suite/bin/../lib/gcc/pic32mx/4.5.1/../../../../pic32mx/lib\libc.a(memcmp.o)

.data%z89       0x00000000        0x0
 .data          0x00000000        0x0 c:/program files (x86)/microchip/mplab c32 suite/bin/../lib/gcc/pic32mx/4.5.1/../../../../pic32mx/lib\libc.a(memcmp.o)

.mdebug.abi32%z90
                0x00000000        0x0
 .mdebug.abi32  0x00000000        0x0 c:/program files (x86)/microchip/mplab c32 suite/bin/../lib/gcc/pic32mx/4.5.1\libgcc.a(_udivdi3.o)

.bss%z91        0x00000000        0x0
 .bss           0x00000000        0x0 c:/program files (x86)/microchip/mplab c32 suite/bin/../lib/gcc/pic32mx/4.5.1\libgcc.a(_udivdi3.o)

.data%z92       0x00000000        0x0
 .data          0x00000000        0x0 c:/program files (x86)/microchip/mplab c32 suite/bin/../lib/gcc/pic32mx/4.5.1\libgcc.a(_udivdi3.o)

.mdebug.abi32%z93
                0x00000000        0x0
 .mdebug.abi32  0x00000000        0x0 build/default/production/_ext/1472/IperfApp.o

.bss%z94        0x00000000        0x0
 .bss           0x00000000        0x0 build/default/production/_ext/1472/IperfApp.o

.data%z95       0x00000000        0x0
 .data          0x00000000        0x0 build/default/production/_ext/1472/IperfApp.o

.mdebug.abi32%z96
                0x00000000        0x0
 .mdebug.abi32  0x00000000        0x0 build/default/production/_ext/1472/WF_Config.o

.bss%z97        0x00000000        0x0
 .bss           0x00000000        0x0 build/default/production/_ext/1472/WF_Config.o

.mdebug.abi32%z98
                0x00000000        0x0
 .mdebug.abi32  0x00000000        0x0 build/default/production/_ext/1472/MainDemo.o

.bss%z99        0x00000000        0x0
 .bss           0x00000000        0x0 build/default/production/_ext/1472/MainDemo.o

.mdebug.abi32%z100
                0x00000000        0x0
 .mdebug.abi32  0x00000000        0x0 build/default/production/_ext/1472/MPFSImg2.o

.bss%z101       0x00000000        0x0
 .bss           0x00000000        0x0 build/default/production/_ext/1472/MPFSImg2.o

.data%z102      0x00000000        0x0
 .data          0x00000000        0x0 build/default/production/_ext/1472/MPFSImg2.o

.mdebug.abi32%z103
                0x00000000        0x0
 .mdebug.abi32  0x00000000        0x0 build/default/production/_ext/1472/CustomHTTPApp.o

.data%z104      0x00000000        0x0
 .data          0x00000000        0x0 build/default/production/_ext/1472/CustomHTTPApp.o

.mdebug.abi32%z105
                0x00000000        0x0
 .mdebug.abi32  0x00000000        0x0 build/default/production/_ext/243675038/WF_Spi.o

.bss%z106       0x00000000        0x0
 .bss           0x00000000        0x0 build/default/production/_ext/243675038/WF_Spi.o

.data%z107      0x00000000        0x0
 .data          0x00000000        0x0 build/default/production/_ext/243675038/WF_Spi.o

.mdebug.abi32%z108
                0x00000000        0x0
 .mdebug.abi32  0x00000000        0x0 build/default/production/_ext/243675038/WF_Eint.o

.bss%z109       0x00000000        0x0
 .bss           0x00000000        0x0 build/default/production/_ext/243675038/WF_Eint.o

.data%z110      0x00000000        0x0
 .data          0x00000000        0x0 build/default/production/_ext/243675038/WF_Eint.o

.mdebug.abi32%z111
                0x00000000        0x0
 .mdebug.abi32  0x00000000        0x0 build/default/production/_ext/243675038/WFTxPower.o

.bss%z112       0x00000000        0x0
 .bss           0x00000000        0x0 build/default/production/_ext/243675038/WFTxPower.o

.data%z113      0x00000000        0x0
 .data          0x00000000        0x0 build/default/production/_ext/243675038/WFTxPower.o

.mdebug.abi32%z114
                0x00000000        0x0
 .mdebug.abi32  0x00000000        0x0 build/default/production/_ext/243675038/WFScan.o

.bss%z115       0x00000000        0x0
 .bss           0x00000000        0x0 build/default/production/_ext/243675038/WFScan.o

.data%z116      0x00000000        0x0
 .data          0x00000000        0x0 build/default/production/_ext/243675038/WFScan.o

.mdebug.abi32%z117
                0x00000000        0x0
 .mdebug.abi32  0x00000000        0x0 build/default/production/_ext/243675038/WFPowerSave.o

.bss%z118       0x00000000        0x0
 .bss           0x00000000        0x0 build/default/production/_ext/243675038/WFPowerSave.o

.data%z119      0x00000000        0x0
 .data          0x00000000        0x0 build/default/production/_ext/243675038/WFPowerSave.o

.mdebug.abi32%z120
                0x00000000        0x0
 .mdebug.abi32  0x00000000        0x0 build/default/production/_ext/243675038/WFParamMsg.o

.bss%z121       0x00000000        0x0
 .bss           0x00000000        0x0 build/default/production/_ext/243675038/WFParamMsg.o

.data%z122      0x00000000        0x0
 .data          0x00000000        0x0 build/default/production/_ext/243675038/WFParamMsg.o

.mdebug.abi32%z123
                0x00000000        0x0
 .mdebug.abi32  0x00000000        0x0 build/default/production/_ext/243675038/WFMgmtMsg.o

.bss%z124       0x00000000        0x0
 .bss           0x00000000        0x0 build/default/production/_ext/243675038/WFMgmtMsg.o

.data%z125      0x00000000        0x0
 .data          0x00000000        0x0 build/default/production/_ext/243675038/WFMgmtMsg.o

.mdebug.abi32%z126
                0x00000000        0x0
 .mdebug.abi32  0x00000000        0x0 build/default/production/_ext/243675038/WFMac.o

.bss%z127       0x00000000        0x0
 .bss           0x00000000        0x0 build/default/production/_ext/243675038/WFMac.o

.data%z128      0x00000000        0x0
 .data          0x00000000        0x0 build/default/production/_ext/243675038/WFMac.o

.mdebug.abi32%z129
                0x00000000        0x0
 .mdebug.abi32  0x00000000        0x0 build/default/production/_ext/243675038/WFInit.o

.bss%z130       0x00000000        0x0
 .bss           0x00000000        0x0 build/default/production/_ext/243675038/WFInit.o

.data%z131      0x00000000        0x0
 .data          0x00000000        0x0 build/default/production/_ext/243675038/WFInit.o

.mdebug.abi32%z132
                0x00000000        0x0
 .mdebug.abi32  0x00000000        0x0 build/default/production/_ext/243675038/WFEventHandler.o

.bss%z133       0x00000000        0x0
 .bss           0x00000000        0x0 build/default/production/_ext/243675038/WFEventHandler.o

.data%z134      0x00000000        0x0
 .data          0x00000000        0x0 build/default/production/_ext/243675038/WFEventHandler.o

.mdebug.abi32%z135
                0x00000000        0x0
 .mdebug.abi32  0x00000000        0x0 build/default/production/_ext/243675038/WFEasyConfig.o

.bss%z136       0x00000000        0x0
 .bss           0x00000000        0x0 build/default/production/_ext/243675038/WFEasyConfig.o

.data%z137      0x00000000        0x0
 .data          0x00000000        0x0 build/default/production/_ext/243675038/WFEasyConfig.o

.mdebug.abi32%z138
                0x00000000        0x0
 .mdebug.abi32  0x00000000        0x0 build/default/production/_ext/243675038/WFDriverRaw.o

.bss%z139       0x00000000        0x0
 .bss           0x00000000        0x0 build/default/production/_ext/243675038/WFDriverRaw.o

.data%z140      0x00000000        0x0
 .data          0x00000000        0x0 build/default/production/_ext/243675038/WFDriverRaw.o

.mdebug.abi32%z141
                0x00000000        0x0
 .mdebug.abi32  0x00000000        0x0 build/default/production/_ext/243675038/WFDriverCom.o

.bss%z142       0x00000000        0x0
 .bss           0x00000000        0x0 build/default/production/_ext/243675038/WFDriverCom.o

.data%z143      0x00000000        0x0
 .data          0x00000000        0x0 build/default/production/_ext/243675038/WFDriverCom.o

.mdebug.abi32%z144
                0x00000000        0x0
 .mdebug.abi32  0x00000000        0x0 build/default/production/_ext/243675038/WFConsoleMsgs.o

.bss%z145       0x00000000        0x0
 .bss           0x00000000        0x0 build/default/production/_ext/243675038/WFConsoleMsgs.o

.data%z146      0x00000000        0x0
 .data          0x00000000        0x0 build/default/production/_ext/243675038/WFConsoleMsgs.o

.mdebug.abi32%z147
                0x00000000        0x0
 .mdebug.abi32  0x00000000        0x0 build/default/production/_ext/243675038/WFConsoleMsgHandler.o

.bss%z148       0x00000000        0x0
 .bss           0x00000000        0x0 build/default/production/_ext/243675038/WFConsoleMsgHandler.o

.data%z149      0x00000000        0x0
 .data          0x00000000        0x0 build/default/production/_ext/243675038/WFConsoleMsgHandler.o

.mdebug.abi32%z150
                0x00000000        0x0
 .mdebug.abi32  0x00000000        0x0 build/default/production/_ext/243675038/WFConsoleIwpriv.o

.bss%z151       0x00000000        0x0
 .bss           0x00000000        0x0 build/default/production/_ext/243675038/WFConsoleIwpriv.o

.data%z152      0x00000000        0x0
 .data          0x00000000        0x0 build/default/production/_ext/243675038/WFConsoleIwpriv.o

.mdebug.abi32%z153
                0x00000000        0x0
 .mdebug.abi32  0x00000000        0x0 build/default/production/_ext/243675038/WFConsoleIwconfig.o

.bss%z154       0x00000000        0x0
 .bss           0x00000000        0x0 build/default/production/_ext/243675038/WFConsoleIwconfig.o

.data%z155      0x00000000        0x0
 .data          0x00000000        0x0 build/default/production/_ext/243675038/WFConsoleIwconfig.o

.mdebug.abi32%z156
                0x00000000        0x0
 .mdebug.abi32  0x00000000        0x0 build/default/production/_ext/243675038/WFConsoleIfconfig.o

.bss%z157       0x00000000        0x0
 .bss           0x00000000        0x0 build/default/production/_ext/243675038/WFConsoleIfconfig.o

.data%z158      0x00000000        0x0
 .data          0x00000000        0x0 build/default/production/_ext/243675038/WFConsoleIfconfig.o

.mdebug.abi32%z159
                0x00000000        0x0
 .mdebug.abi32  0x00000000        0x0 build/default/production/_ext/243675038/WFConsole.o

.bss%z160       0x00000000        0x0
 .bss           0x00000000        0x0 build/default/production/_ext/243675038/WFConsole.o

.data%z161      0x00000000        0x0
 .data          0x00000000        0x0 build/default/production/_ext/243675038/WFConsole.o

.mdebug.abi32%z162
                0x00000000        0x0
 .mdebug.abi32  0x00000000        0x0 build/default/production/_ext/243675038/WFConnectionProfile.o

.bss%z163       0x00000000        0x0
 .bss           0x00000000        0x0 build/default/production/_ext/243675038/WFConnectionProfile.o

.data%z164      0x00000000        0x0
 .data          0x00000000        0x0 build/default/production/_ext/243675038/WFConnectionProfile.o

.mdebug.abi32%z165
                0x00000000        0x0
 .mdebug.abi32  0x00000000        0x0 build/default/production/_ext/243675038/WFConnectionManager.o

.bss%z166       0x00000000        0x0
 .bss           0x00000000        0x0 build/default/production/_ext/243675038/WFConnectionManager.o

.data%z167      0x00000000        0x0
 .data          0x00000000        0x0 build/default/production/_ext/243675038/WFConnectionManager.o

.mdebug.abi32%z168
                0x00000000        0x0
 .mdebug.abi32  0x00000000        0x0 build/default/production/_ext/243675038/WFConnectionAlgorithm.o

.bss%z169       0x00000000        0x0
 .bss           0x00000000        0x0 build/default/production/_ext/243675038/WFConnectionAlgorithm.o

.data%z170      0x00000000        0x0
 .data          0x00000000        0x0 build/default/production/_ext/243675038/WFConnectionAlgorithm.o

.mdebug.abi32%z171
                0x00000000        0x0
 .mdebug.abi32  0x00000000        0x0 build/default/production/_ext/1954962658/ZeroconfMulticastDNS.o

.data%z172      0x00000000        0x0
 .data          0x00000000        0x0 build/default/production/_ext/1954962658/ZeroconfMulticastDNS.o

.mdebug.abi32%z173
                0x00000000        0x0
 .mdebug.abi32  0x00000000        0x0 build/default/production/_ext/1954962658/ZeroconfLinkLocal.o

.bss%z174       0x00000000        0x0
 .bss           0x00000000        0x0 build/default/production/_ext/1954962658/ZeroconfLinkLocal.o

.data%z175      0x00000000        0x0
 .data          0x00000000        0x0 build/default/production/_ext/1954962658/ZeroconfLinkLocal.o

.mdebug.abi32%z176
                0x00000000        0x0
 .mdebug.abi32  0x00000000        0x0 build/default/production/_ext/1954962658/ZeroconfHelper.o

.bss%z177       0x00000000        0x0
 .bss           0x00000000        0x0 build/default/production/_ext/1954962658/ZeroconfHelper.o

.data%z178      0x00000000        0x0
 .data          0x00000000        0x0 build/default/production/_ext/1954962658/ZeroconfHelper.o

.mdebug.abi32%z179
                0x00000000        0x0
 .mdebug.abi32  0x00000000        0x0 build/default/production/_ext/1954962658/UDPPerformanceTest.o

.bss%z180       0x00000000        0x0
 .bss           0x00000000        0x0 build/default/production/_ext/1954962658/UDPPerformanceTest.o

.data%z181      0x00000000        0x0
 .data          0x00000000        0x0 build/default/production/_ext/1954962658/UDPPerformanceTest.o

.mdebug.abi32%z182
                0x00000000        0x0
 .mdebug.abi32  0x00000000        0x0 build/default/production/_ext/1954962658/UDP.o

.bss%z183       0x00000000        0x0
 .bss           0x00000000        0x0 build/default/production/_ext/1954962658/UDP.o

.data%z184      0x00000000        0x0
 .data          0x00000000        0x0 build/default/production/_ext/1954962658/UDP.o

.mdebug.abi32%z185
                0x00000000        0x0
 .mdebug.abi32  0x00000000        0x0 build/default/production/_ext/1954962658/UART2TCPBridge.o

.bss%z186       0x00000000        0x0
 .bss           0x00000000        0x0 build/default/production/_ext/1954962658/UART2TCPBridge.o

.data%z187      0x00000000        0x0
 .data          0x00000000        0x0 build/default/production/_ext/1954962658/UART2TCPBridge.o

.mdebug.abi32%z188
                0x00000000        0x0
 .mdebug.abi32  0x00000000        0x0 build/default/production/_ext/1954962658/UART.o

.bss%z189       0x00000000        0x0
 .bss           0x00000000        0x0 build/default/production/_ext/1954962658/UART.o

.data%z190      0x00000000        0x0
 .data          0x00000000        0x0 build/default/production/_ext/1954962658/UART.o

.mdebug.abi32%z191
                0x00000000        0x0
 .mdebug.abi32  0x00000000        0x0 build/default/production/_ext/1954962658/Tick.o

.bss%z192       0x00000000        0x0
 .bss           0x00000000        0x0 build/default/production/_ext/1954962658/Tick.o

.data%z193      0x00000000        0x0
 .data          0x00000000        0x0 build/default/production/_ext/1954962658/Tick.o

.mdebug.abi32%z194
                0x00000000        0x0
 .mdebug.abi32  0x00000000        0x0 build/default/production/_ext/1954962658/Telnet.o

.bss%z195       0x00000000        0x0
 .bss           0x00000000        0x0 build/default/production/_ext/1954962658/Telnet.o

.data%z196      0x00000000        0x0
 .data          0x00000000        0x0 build/default/production/_ext/1954962658/Telnet.o

.mdebug.abi32%z197
                0x00000000        0x0
 .mdebug.abi32  0x00000000        0x0 build/default/production/_ext/1954962658/TFTPc.o

.bss%z198       0x00000000        0x0
 .bss           0x00000000        0x0 build/default/production/_ext/1954962658/TFTPc.o

.data%z199      0x00000000        0x0
 .data          0x00000000        0x0 build/default/production/_ext/1954962658/TFTPc.o

.mdebug.abi32%z200
                0x00000000        0x0
 .mdebug.abi32  0x00000000        0x0 build/default/production/_ext/1954962658/TCPPerformanceTest.o

.bss%z201       0x00000000        0x0
 .bss           0x00000000        0x0 build/default/production/_ext/1954962658/TCPPerformanceTest.o

.data%z202      0x00000000        0x0
 .data          0x00000000        0x0 build/default/production/_ext/1954962658/TCPPerformanceTest.o

.mdebug.abi32%z203
                0x00000000        0x0
 .mdebug.abi32  0x00000000        0x0 build/default/production/_ext/1954962658/TCP.o

.data%z204      0x00000000        0x0
 .data          0x00000000        0x0 build/default/production/_ext/1954962658/TCP.o

.mdebug.abi32%z205
                0x00000000        0x0
 .mdebug.abi32  0x00000000        0x0 build/default/production/_ext/1954962658/StackTsk.o

.bss%z206       0x00000000        0x0
 .bss           0x00000000        0x0 build/default/production/_ext/1954962658/StackTsk.o

.data%z207      0x00000000        0x0
 .data          0x00000000        0x0 build/default/production/_ext/1954962658/StackTsk.o

.mdebug.abi32%z208
                0x00000000        0x0
 .mdebug.abi32  0x00000000        0x0 build/default/production/_ext/1954962658/SSL.o

.bss%z209       0x00000000        0x0
 .bss           0x00000000        0x0 build/default/production/_ext/1954962658/SSL.o

.data%z210      0x00000000        0x0
 .data          0x00000000        0x0 build/default/production/_ext/1954962658/SSL.o

.mdebug.abi32%z211
                0x00000000        0x0
 .mdebug.abi32  0x00000000        0x0 build/default/production/_ext/1954962658/SPIRAM.o

.bss%z212       0x00000000        0x0
 .bss           0x00000000        0x0 build/default/production/_ext/1954962658/SPIRAM.o

.data%z213      0x00000000        0x0
 .data          0x00000000        0x0 build/default/production/_ext/1954962658/SPIRAM.o

.mdebug.abi32%z214
                0x00000000        0x0
 .mdebug.abi32  0x00000000        0x0 build/default/production/_ext/1954962658/SPIFlash.o

.bss%z215       0x00000000        0x0
 .bss           0x00000000        0x0 build/default/production/_ext/1954962658/SPIFlash.o

.data%z216      0x00000000        0x0
 .data          0x00000000        0x0 build/default/production/_ext/1954962658/SPIFlash.o

.mdebug.abi32%z217
                0x00000000        0x0
 .mdebug.abi32  0x00000000        0x0 build/default/production/_ext/1954962658/SPIEEPROM.o

.bss%z218       0x00000000        0x0
 .bss           0x00000000        0x0 build/default/production/_ext/1954962658/SPIEEPROM.o

.data%z219      0x00000000        0x0
 .data          0x00000000        0x0 build/default/production/_ext/1954962658/SPIEEPROM.o

.mdebug.abi32%z220
                0x00000000        0x0
 .mdebug.abi32  0x00000000        0x0 build/default/production/_ext/1954962658/SNTP.o

.bss%z221       0x00000000        0x0
 .bss           0x00000000        0x0 build/default/production/_ext/1954962658/SNTP.o

.data%z222      0x00000000        0x0
 .data          0x00000000        0x0 build/default/production/_ext/1954962658/SNTP.o

.mdebug.abi32%z223
                0x00000000        0x0
 .mdebug.abi32  0x00000000        0x0 build/default/production/_ext/1954962658/SNMP.o

.bss%z224       0x00000000        0x0
 .bss           0x00000000        0x0 build/default/production/_ext/1954962658/SNMP.o

.data%z225      0x00000000        0x0
 .data          0x00000000        0x0 build/default/production/_ext/1954962658/SNMP.o

.mdebug.abi32%z226
                0x00000000        0x0
 .mdebug.abi32  0x00000000        0x0 build/default/production/_ext/1954962658/SMTP.o

.bss%z227       0x00000000        0x0
 .bss           0x00000000        0x0 build/default/production/_ext/1954962658/SMTP.o

.data%z228      0x00000000        0x0
 .data          0x00000000        0x0 build/default/production/_ext/1954962658/SMTP.o

.mdebug.abi32%z229
                0x00000000        0x0
 .mdebug.abi32  0x00000000        0x0 build/default/production/_ext/1954962658/Reboot.o

.bss%z230       0x00000000        0x0
 .bss           0x00000000        0x0 build/default/production/_ext/1954962658/Reboot.o

.data%z231      0x00000000        0x0
 .data          0x00000000        0x0 build/default/production/_ext/1954962658/Reboot.o

.mdebug.abi32%z232
                0x00000000        0x0
 .mdebug.abi32  0x00000000        0x0 build/default/production/_ext/1954962658/Random.o

.bss%z233       0x00000000        0x0
 .bss           0x00000000        0x0 build/default/production/_ext/1954962658/Random.o

.data%z234      0x00000000        0x0
 .data          0x00000000        0x0 build/default/production/_ext/1954962658/Random.o

.mdebug.abi32%z235
                0x00000000        0x0
 .mdebug.abi32  0x00000000        0x0 build/default/production/_ext/1954962658/RSA.o

.bss%z236       0x00000000        0x0
 .bss           0x00000000        0x0 build/default/production/_ext/1954962658/RSA.o

.data%z237      0x00000000        0x0
 .data          0x00000000        0x0 build/default/production/_ext/1954962658/RSA.o

.mdebug.abi32%z238
                0x00000000        0x0
 .mdebug.abi32  0x00000000        0x0 build/default/production/_ext/1954962658/NBNS.o

.bss%z239       0x00000000        0x0
 .bss           0x00000000        0x0 build/default/production/_ext/1954962658/NBNS.o

.data%z240      0x00000000        0x0
 .data          0x00000000        0x0 build/default/production/_ext/1954962658/NBNS.o

.mdebug.abi32%z241
                0x00000000        0x0
 .mdebug.abi32  0x00000000        0x0 build/default/production/_ext/1954962658/MPFS2.o

.data%z242      0x00000000        0x0
 .data          0x00000000        0x0 build/default/production/_ext/1954962658/MPFS2.o

.mdebug.abi32%z243
                0x00000000        0x0
 .mdebug.abi32  0x00000000        0x0 build/default/production/_ext/1954962658/LCDBlocking.o

.bss%z244       0x00000000        0x0
 .bss           0x00000000        0x0 build/default/production/_ext/1954962658/LCDBlocking.o

.data%z245      0x00000000        0x0
 .data          0x00000000        0x0 build/default/production/_ext/1954962658/LCDBlocking.o

.mdebug.abi32%z246
                0x00000000        0x0
 .mdebug.abi32  0x00000000        0x0 build/default/production/_ext/1954962658/IP.o

.bss%z247       0x00000000        0x0
 .bss           0x00000000        0x0 build/default/production/_ext/1954962658/IP.o

.data%z248      0x00000000        0x0
 .data          0x00000000        0x0 build/default/production/_ext/1954962658/IP.o

.mdebug.abi32%z249
                0x00000000        0x0
 .mdebug.abi32  0x00000000        0x0 build/default/production/_ext/1954962658/ICMP.o

.bss%z250       0x00000000        0x0
 .bss           0x00000000        0x0 build/default/production/_ext/1954962658/ICMP.o

.data%z251      0x00000000        0x0
 .data          0x00000000        0x0 build/default/production/_ext/1954962658/ICMP.o

.mdebug.abi32%z252
                0x00000000        0x0
 .mdebug.abi32  0x00000000        0x0 build/default/production/_ext/1954962658/Helpers.o

.bss%z253       0x00000000        0x0
 .bss           0x00000000        0x0 build/default/production/_ext/1954962658/Helpers.o

.data%z254      0x00000000        0x0
 .data          0x00000000        0x0 build/default/production/_ext/1954962658/Helpers.o

.mdebug.abi32%z255
                0x00000000        0x0
 .mdebug.abi32  0x00000000        0x0 build/default/production/_ext/1954962658/Hashes.o

.bss%z256       0x00000000        0x0
 .bss           0x00000000        0x0 build/default/production/_ext/1954962658/Hashes.o

.data%z257      0x00000000        0x0
 .data          0x00000000        0x0 build/default/production/_ext/1954962658/Hashes.o

.mdebug.abi32%z258
                0x00000000        0x0
 .mdebug.abi32  0x00000000        0x0 build/default/production/_ext/1954962658/HTTP2.o

.bss%z259       0x00000000        0x0
 .bss           0x00000000        0x0 build/default/production/_ext/1954962658/HTTP2.o

.data%z260      0x00000000        0x0
 .data          0x00000000        0x0 build/default/production/_ext/1954962658/HTTP2.o

.mdebug.abi32%z261
                0x00000000        0x0
 .mdebug.abi32  0x00000000        0x0 build/default/production/_ext/1954962658/FTP.o

.bss%z262       0x00000000        0x0
 .bss           0x00000000        0x0 build/default/production/_ext/1954962658/FTP.o

.data%z263      0x00000000        0x0
 .data          0x00000000        0x0 build/default/production/_ext/1954962658/FTP.o

.mdebug.abi32%z264
                0x00000000        0x0
 .mdebug.abi32  0x00000000        0x0 build/default/production/_ext/1954962658/DynDNS.o

.bss%z265       0x00000000        0x0
 .bss           0x00000000        0x0 build/default/production/_ext/1954962658/DynDNS.o

.data%z266      0x00000000        0x0
 .data          0x00000000        0x0 build/default/production/_ext/1954962658/DynDNS.o

.mdebug.abi32%z267
                0x00000000        0x0
 .mdebug.abi32  0x00000000        0x0 build/default/production/_ext/1954962658/Delay.o

.bss%z268       0x00000000        0x0
 .bss           0x00000000        0x0 build/default/production/_ext/1954962658/Delay.o

.data%z269      0x00000000        0x0
 .data          0x00000000        0x0 build/default/production/_ext/1954962658/Delay.o

.mdebug.abi32%z270
                0x00000000        0x0
 .mdebug.abi32  0x00000000        0x0 build/default/production/_ext/1954962658/DNSs.o

.bss%z271       0x00000000        0x0
 .bss           0x00000000        0x0 build/default/production/_ext/1954962658/DNSs.o

.data%z272      0x00000000        0x0
 .data          0x00000000        0x0 build/default/production/_ext/1954962658/DNSs.o

.mdebug.abi32%z273
                0x00000000        0x0
 .mdebug.abi32  0x00000000        0x0 build/default/production/_ext/1954962658/DNS.o

.bss%z274       0x00000000        0x0
 .bss           0x00000000        0x0 build/default/production/_ext/1954962658/DNS.o

.data%z275      0x00000000        0x0
 .data          0x00000000        0x0 build/default/production/_ext/1954962658/DNS.o

.mdebug.abi32%z276
                0x00000000        0x0
 .mdebug.abi32  0x00000000        0x0 build/default/production/_ext/1954962658/DHCPs.o

.bss%z277       0x00000000        0x0
 .bss           0x00000000        0x0 build/default/production/_ext/1954962658/DHCPs.o

.data%z278      0x00000000        0x0
 .data          0x00000000        0x0 build/default/production/_ext/1954962658/DHCPs.o

.mdebug.abi32%z279
                0x00000000        0x0
 .mdebug.abi32  0x00000000        0x0 build/default/production/_ext/1954962658/DHCP.o

.data%z280      0x00000000        0x0
 .data          0x00000000        0x0 build/default/production/_ext/1954962658/DHCP.o

.bss%z281       0x00000000        0x0
 .bss           0x00000000        0x0 build/default/production/_ext/1954962658/BigInt_helper_C32.o

.data%z282      0x00000000        0x0
 .data          0x00000000        0x0 build/default/production/_ext/1954962658/BigInt_helper_C32.o

.mdebug.abi32%z283
                0x00000000        0x0
 .mdebug.abi32  0x00000000        0x0 build/default/production/_ext/1954962658/BigInt.o

.bss%z284       0x00000000        0x0
 .bss           0x00000000        0x0 build/default/production/_ext/1954962658/BigInt.o

.data%z285      0x00000000        0x0
 .data          0x00000000        0x0 build/default/production/_ext/1954962658/BigInt.o

.mdebug.abi32%z286
                0x00000000        0x0
 .mdebug.abi32  0x00000000        0x0 build/default/production/_ext/1954962658/BerkeleyAPI.o

.bss%z287       0x00000000        0x0
 .bss           0x00000000        0x0 build/default/production/_ext/1954962658/BerkeleyAPI.o

.data%z288      0x00000000        0x0
 .data          0x00000000        0x0 build/default/production/_ext/1954962658/BerkeleyAPI.o

.mdebug.abi32%z289
                0x00000000        0x0
 .mdebug.abi32  0x00000000        0x0 build/default/production/_ext/1954962658/AutoIP.o

.bss%z290       0x00000000        0x0
 .bss           0x00000000        0x0 build/default/production/_ext/1954962658/AutoIP.o

.data%z291      0x00000000        0x0
 .data          0x00000000        0x0 build/default/production/_ext/1954962658/AutoIP.o

.mdebug.abi32%z292
                0x00000000        0x0
 .mdebug.abi32  0x00000000        0x0 build/default/production/_ext/1954962658/Announce.o

.bss%z293       0x00000000        0x0
 .bss           0x00000000        0x0 build/default/production/_ext/1954962658/Announce.o

.data%z294      0x00000000        0x0
 .data          0x00000000        0x0 build/default/production/_ext/1954962658/Announce.o

.mdebug.abi32%z295
                0x00000000        0x0
 .mdebug.abi32  0x00000000        0x0 build/default/production/_ext/1954962658/ARP.o

.data%z296      0x00000000        0x0
 .data          0x00000000        0x0 build/default/production/_ext/1954962658/ARP.o

.mdebug.abi32%z297
                0x00000000        0x0
 .mdebug.abi32  0x00000000        0x0 build/default/production/_ext/1954962658/ARCFOUR.o

.bss%z298       0x00000000        0x0
 .bss           0x00000000        0x0 build/default/production/_ext/1954962658/ARCFOUR.o

.data%z299      0x00000000        0x0
 .data          0x00000000        0x0 build/default/production/_ext/1954962658/ARCFOUR.o

.bss%z300       0x00000000        0x0
 .bss           0x00000000        0x0 c:/program files (x86)/microchip/mplab c32 suite/bin/../lib/gcc/pic32mx/4.5.1/../../../../pic32mx/lib/crt0.o

.data%z301      0x00000000        0x0
 .data          0x00000000        0x0 c:/program files (x86)/microchip/mplab c32 suite/bin/../lib/gcc/pic32mx/4.5.1/../../../../pic32mx/lib/crt0.o

.text           0x9d000008     0x8200
 .text          0x9d000008     0x8200 build/default/production/_ext/1954962658/TCP.o
                0x9d000134                TCPInit
                0x9d000428                TCPOpen
                0x9d00083c                TCPWasReset
                0x9d0008d4                TCPIsConnected
                0x9d00092c                TCPDisconnect
                0x9d000ba8                TCPClose
                0x9d000c18                TCPGetRemoteInfo
                0x9d000c94                TCPFlush
                0x9d000d18                TCPIsPutReady
                0x9d000ef4                TCPPut
                0x9d00124c                TCPPutArray
                0x9d0016b8                TCPPutString
                0x9d001728                TCPGetTxFIFOFull
                0x9d0017dc                TCPDiscard
                0x9d001884                TCPIsGetReady
                0x9d001a08                TCPGet
                0x9d001c98                TCPGetArray
                0x9d002060                TCPGetRxFIFOFree
                0x9d00210c                TCPPeekArray
                0x9d0023a8                TCPPeek
                0x9d002408                TCPFindArrayEx
                0x9d002a20                TCPFindEx
                0x9d002a98                TCPTick
                0x9d003980                TCPProcess
                0x9d007948                TCPAdjustFIFOSize

.rodata         0x9d008208     0x6554
 .rodata        0x9d008208     0x6554 build/default/production/_ext/1472/MPFSImg2.o
                0x9d008208                MPFS_Start

.text           0x9d00e75c    0x12b9c
 .text          0x9d00e75c     0x3b74 build/default/production/_ext/1954962658/ZeroconfMulticastDNS.o
                0x9d00f66c                mDNSSDFormatServiceInstance
                0x9d00f820                mDNSSDFillResRecords
                0x9d00fb50                mDNSServiceUpdate
                0x9d00fc4c                mDNSServiceDeRegister
                0x9d00fd70                mDNSServiceRegister
                0x9d00ff4c                mDNSAnnounce
                0x9d011470                mDNSFillHostRecord
                0x9d011544                mDNSHostRegister
                0x9d0116a4                mDNSInitialize
                0x9d01176c                mDNSProcessInternal
                0x9d011ec0                mDNSProcess
                0x9d012004                mDNSMulticastFilterRegister
                0x9d01205c                mDNSDumpInfo
 .text          0x9d0122d0     0x2e28 build/default/production/_ext/1954962658/HTTP2.o
                0x9d0122d0                HTTPPrint
                0x9d0125d8                HTTPPrint_
                0x9d01262c                HTTPInit
                0x9d012750                HTTPServer
                0x9d014770                HTTPURLDecode
                0x9d01494c                HTTPGetArg
                0x9d014a1c                HTTPReadPostName
                0x9d014a98                HTTPReadPostValue
                0x9d014ee0                HTTPIncFile
 .text          0x9d0150f8     0x1bac build/default/production/_ext/1472/CustomHTTPApp.o
                0x9d0150f8                HTTPExecuteGet
                0x9d0152c8                HTTPExecutePost
                0x9d015e78                HTTPPrint_btn
                0x9d015fa4                HTTPPrint_led
                0x9d01609c                HTTPPrint_ipaddr
                0x9d016150                HTTPPrint_scan
                0x9d0161c8                HTTPPrint_bssCount
                0x9d016238                HTTPPrint_curPrivacy
                0x9d0165b4                HTTPPrint_ssid
                0x9d016620                HTTPPrint_prevSSID
                0x9d016678                HTTPPrint_wlan
                0x9d016730                HTTPPrint_prevWLAN
                0x9d0167e8                HTTPPrint_Demoversion
                0x9d016848                HTTPPrint_aplist
 .text          0x9d016ca4     0x1714 build/default/production/_ext/243675038/WFMac.o
                0x9d017094                MACProcess
                0x9d017120                MACInit
                0x9d017150                RawInit
                0x9d0171e0                MACIsLinked
                0x9d017210                MACIsTxReady
                0x9d0172c8                WFisTxMgmtReady
                0x9d017354                WFFreeMgmtTx
                0x9d0173e4                SendRAWManagementFrame
                0x9d017430                RawGetMgmtRxBuffer
                0x9d0174cc                SetRawRxMgmtInProgress
                0x9d017508                isRawRxMgmtInProgress
                0x9d01752c                MACDiscardRx
                0x9d017554                MACGetFreeRxSize
                0x9d01767c                MACGetHeader
                0x9d01786c                MACPutHeader
                0x9d017948                MACFlush
                0x9d017a28                MACSetReadPtrInRx
                0x9d017a74                MACSetWritePtr
                0x9d017ac4                MACSetReadPtr
                0x9d017b14                MACCalcRxChecksum
                0x9d017ba0                MACMemCopyAsync
                0x9d0180fc                MACIsMemCopyDone
                0x9d018120                MACGet
                0x9d018194                MACGetArray
                0x9d018274                MACPut
                0x9d0182f4                MACPutArray
                0x9d018378                MACPowerDown
                0x9d018398                MACPowerUp
 .text          0x9d0183b8     0x16c8 build/default/production/_ext/1954962658/MPFS2.o
                0x9d0183b8                MPFSInit
                0x9d01843c                MPFSOpen
                0x9d018758                MPFSOpenID
                0x9d0188c8                MPFSClose
                0x9d018930                MPFSGet
                0x9d018b54                MPFSGetArray
                0x9d018de0                MPFSGetLong
                0x9d018e38                MPFSSeek
                0x9d01930c                MPFSGetTimestamp
                0x9d0193c8                MPFSGetMicrotime
                0x9d019484                MPFSGetFlags
                0x9d019540                MPFSGetSize
                0x9d0195fc                MPFSGetBytesRem
                0x9d019698                MPFSGetStartAddr
                0x9d019754                MPFSGetEndAddr
                0x9d019820                MPFSGetFilename
                0x9d019920                MPFSGetPosition
                0x9d01998c                MPFSGetID
 .text          0x9d019a80     0x159c build/default/production/_ext/1954962658/DHCP.o
                0x9d019a80                DHCPInit
                0x9d019b74                DHCPDisable
                0x9d019be4                DHCPEnable
                0x9d019c44                DHCPIsEnabled
                0x9d019c7c                DHCPIsBound
                0x9d019cb8                DHCPStateChanged
                0x9d019d1c                DHCPIsServerDetected
                0x9d019d58                DHCPTask
 .text          0x9d01b01c     0x10c8 build/default/production/_ext/1954962658/Helpers.o
                0x9d01b01c                LFSRSeedRand
                0x9d01b0a0                LFSRRand
                0x9d01b118                GenerateRandomDWORD
                0x9d01b374                StringToIPAddress
                0x9d01b714                uitoa
                0x9d01b840                hexatob
                0x9d01b934                btohexa_high
                0x9d01b998                btohexa_low
                0x9d01b9fc                stricmppgm2ram
                0x9d01bb68                swaps
                0x9d01bbb4                swapl
                0x9d01bc9c                CalcIPChecksum
                0x9d01bd84                CalcIPBufferChecksum
                0x9d01becc                strupr
                0x9d01bf68                FormatNetBIOSName
                0x9d01c030                strnchr
 .text          0x9d01c0e4      0xfbc build/default/production/_ext/1954962658/UDP.o
                0x9d01c0e4                UDPInit
                0x9d01c154                UDPOpenEx
                0x9d01c340                UDPTask
                0x9d01c69c                UDPIsOpened
                0x9d01c6ec                UDPClose
                0x9d01c794                UDPSetTxBuffer
                0x9d01c7e0                UDPSetRxBuffer
                0x9d01c830                UDPIsPutReady
                0x9d01c8bc                UDPPut
                0x9d01c948                UDPPutArray
                0x9d01c9f0                UDPPutString
                0x9d01ca48                UDPFlush
                0x9d01cb34                UDPIsGetReady
                0x9d01cbc4                UDPGet
                0x9d01cc48                UDPGetArray
                0x9d01cd08                UDPDiscard
                0x9d01cd68                UDPProcess
 .text          0x9d01d0a0      0xf4c build/default/production/_ext/243675038/WFConnectionAlgorithm.o
                0x9d01d0a0                WF_CASetElements
                0x9d01d32c                WF_CASetElementsN
                0x9d01d3c4                WF_CAGetElements
                0x9d01d4ec                WF_CASetScanType
                0x9d01d530                WF_CAGetScanType
                0x9d01d574                WF_CASetMinChannelTime
                0x9d01d5e8                WF_CAGetMinChannelTime
                0x9d01d668                WF_CASetMaxChannelTime
                0x9d01d6dc                WF_CAGetMaxChannelTime
                0x9d01d75c                WF_CASetProbeDelay
                0x9d01d7d0                WF_CAGetProbeDelay
                0x9d01d850                WF_CASetScanCount
                0x9d01d894                WF_CAGetScanCount
                0x9d01d8d8                WF_CASetRssi
                0x9d01d91c                WF_CAGetRssi
                0x9d01d960                WF_CASetConnectionProfileList
                0x9d01d99c                WF_CAGetConnectionProfileList
                0x9d01d9d8                WF_CASetListRetryCount
                0x9d01da1c                WF_CAGetListRetryCount
                0x9d01da60                WF_CASetEventNotificationAction
                0x9d01daa0                WF_CAGetEventNotificationAction
                0x9d01dae0                WF_CASetBeaconTimeoutAction
                0x9d01db24                WF_CAGetBeaconTimeoutAction
                0x9d01db68                WF_CASetDeauthAction
                0x9d01dbac                WF_CAGetDeauthAction
                0x9d01dbf0                WF_CASetChannelList
                0x9d01dc3c                WF_CAGetChannelList
                0x9d01dcd4                WF_CASetListenInterval
                0x9d01dd48                WF_CAGetListenInterval
                0x9d01ddc8                WF_CASetBeaconTimeout
                0x9d01de0c                WF_CAGetBeaconTimeout
                0x9d01de80                GetEventNotificationMask
 .text          0x9d01dfec      0xe10 build/default/production/_ext/1954962658/ZeroconfLinkLocal.o
                0x9d01dfec                zcll_rand
                0x9d01e05c                ARPAction
                0x9d01e0b4                FindARPPktType
                0x9d01e170                ZeroconfARPPktNotify
                0x9d01e334                ZeroconfLLInitialize
                0x9d01e3d4                ZeroconfLLProcess
 .text          0x9d01edfc      0xd3c build/default/production/_ext/1472/MainDemo.o
                0x9d01edfc                _general_exception_handler
                0x9d01ee28                _mon_putc
                0x9d01ee50                initializeADC
                0x9d01ef04                initializeLEDBar
                0x9d01ef30                main
                0x9d01f9bc                UARTTxBuffer
                0x9d01fad8                DisplayIPValue
 .text          0x9d01fb38      0xc08 build/default/production/_ext/1954962658/DHCPs.o
                0x9d01fb38                DHCPServerTask
 .text          0x9d020740      0xbb8 build/default/production/_ext/243675038/WFDriverRaw.o
                0x9d020740                AllocateMgmtTxBuffer
                0x9d0207fc                DeallocateMgmtRxBuffer
                0x9d020848                AllocateDataTxBuffer
                0x9d020904                DeallocateDataTxBuffer
                0x9d02094c                DeallocateDataRxBuffer
                0x9d02098c                RawSendTxBuffer
                0x9d0209e0                RawMountRxBuffer
                0x9d020a38                RawToRawCopy
                0x9d020a90                PushRawWindow
                0x9d020adc                PopRawWindow
                0x9d020b30                ScratchMount
                0x9d020bb0                ScratchUnmount
                0x9d020c18                RawRead
                0x9d020c8c                RawWrite
                0x9d020e48                RawSetIndex
                0x9d020f50                RawGetIndex
                0x9d020fb8                RawGetByte
                0x9d021074                RawSetByte
                0x9d021290                SendRAWDataFrame

.text._vfprintf_cdnopsuxX
                0x9d0212f8      0xae4
 .text._vfprintf_cdnopsuxX
                0x9d0212f8      0xae4 c:/program files (x86)/microchip/mplab c32 suite/bin/../lib/gcc/pic32mx/4.5.1/../../../../pic32mx/lib\libc.a(doprnt_cdnopsuxX.eo)
                0x9d0212f8                _vfprintf_0
                0x9d0212f8                _vfprintf_cdnopuxX
                0x9d0212f8                _vfprintf_cdnopsuxX
                0x9d0212f8                _vfprintf_s

.text           0x9d021ddc     0x3300
 .text          0x9d021ddc      0xaac build/default/production/_ext/243675038/WFDriverCom.o
                0x9d021ddc                WFProcess
                0x9d021fdc                Read8BitWFRegister
                0x9d022048                Write8BitWFRegister
                0x9d0220b8                Read16BitWFRegister
                0x9d022140                Write16BitWFRegister
                0x9d0221c8                WriteWFArray
                0x9d022250                ReadWFArray
                0x9d02261c                WFEintHandler
                0x9d022758                WFHardwareInit
 .text          0x9d022888      0xa40 build/default/production/_ext/1954962658/ARP.o
                0x9d022888                ARPRegisterCallbacks
                0x9d02294c                ARPDeRegisterCallbacks
                0x9d0229bc                ARPSendPkt
                0x9d022a94                ARPProcessRxPkt
                0x9d022cdc                ARPInit
                0x9d022d64                ARPProcess
                0x9d022fa8                ARPResolve
                0x9d02315c                ARPIsResolved
                0x9d02323c                SwapARPPacket
 .text          0x9d0232c8      0x96c build/default/production/_ext/243675038/WFConnectionProfile.o
                0x9d0232c8                WF_CPCreate
                0x9d023344                WF_CPDelete
                0x9d0233b0                WF_CPGetIds
                0x9d023420                WF_CPSetElements
                0x9d0234b0                WF_CPGetElements
                0x9d02350c                WF_CPSetSsid
                0x9d023588                WF_CPGetSsid
                0x9d023630                WF_CPSetBssid
                0x9d023680                WF_CPGetBssid
                0x9d0236d8                WF_CPSetNetworkType
                0x9d023730                WF_CPGetNetworkType
                0x9d023788                WF_CPSetSecurity
                0x9d023870                WF_CPGetSecurity
                0x9d023970                WF_CPSetDefaultWepKeyIndex
                0x9d0239c8                WF_CPGetDefaultWepKeyIndex
                0x9d023a20                WF_CPSetAdHocBehavior
                0x9d023a78                WF_CPGetAdHocBehavior
 .text          0x9d023c34      0x790 build/default/production/_ext/243675038/WFParamMsg.o
                0x9d023c34                WFEnableMRF24WB0MMode
                0x9d023c7c                WFGetMRF24WB0MVersion
                0x9d023cbc                WF_GetDeviceInfo
                0x9d023d24                WF_SetMacAddress
                0x9d023d64                WF_GetMacAddress
                0x9d023da4                WF_SetMultiCastFilter
                0x9d023ebc                WF_GetMultiCastFilter
                0x9d023fb8                WF_SetTxDataConfirm
                0x9d023ffc                WF_GetTxDataConfirm
                0x9d02403c                WF_SetRegionalDomain
                0x9d024080                WF_GetRegionalDomain
                0x9d0240c0                WF_SetRtsThreshold
                0x9d024154                WF_GetRtsThreshold
                0x9d0241d0                WF_GetMacStats
                0x9d0242ac                SendSetParamMsg
                0x9d024334                SendGetParamMsg
 .text          0x9d0243c4      0x724 build/default/production/_ext/1954962658/NBNS.o
                0x9d0243c4                NBNSTask
 .text          0x9d024ae8      0x5f4 build/default/production/_ext/243675038/WFEasyConfig.o
                0x9d024ae8                WFEasyConfigInit
                0x9d024b60                WFEasyConfigMgr
                0x9d024f6c                WFInitScan
                0x9d024f98                WFStartScan
                0x9d025004                WFRetrieveScanResult
                0x9d025088                WFScanEventHandler

.rodata         0x9d0250dc      0x520
 .rodata        0x9d0250dc      0x520 build/default/production/_ext/1954962658/HTTP2.o

.text           0x9d0255fc      0xd6c
 .text          0x9d0255fc      0x48c build/default/production/_ext/243675038/WFEventHandler.o
                0x9d0255fc                WFProcessMgmtIndicateMsg
 .text          0x9d025a88      0x474 build/default/production/_ext/243675038/WFMgmtMsg.o
                0x9d025a88                SendMgmtMsg
                0x9d025bd4                SignalMgmtConfirmReceivedEvent
                0x9d025bfc                IgnoreNextMgmtResult
                0x9d025c24                WaitForMgmtResponse
                0x9d025d6c                WaitForMgmtResponseAndReadData
                0x9d025e7c                WFSetFuncState
 .text          0x9d025efc      0x46c c:/program files (x86)/microchip/mplab c32 suite/bin/../lib/gcc/pic32mx/4.5.1\libgcc.a(_umoddi3.o)
                0x9d025efc                __umoddi3

.dinit          0x9d026368      0x464
 .dinit         0x9d026368      0x464 data_init

.text           0x9d0267cc     0x1a60
 .text          0x9d0267cc      0x454 build/default/production/_ext/1954962658/StackTsk.o
                0x9d0267cc                StackInit
                0x9d026888                StackTask
                0x9d026bc8                StackApplications
 .text          0x9d026c20      0x448 c:/program files (x86)/microchip/mplab c32 suite/bin/../lib/gcc/pic32mx/4.5.1\libgcc.a(_udivdi3.o)
                0x9d026c20                __udivdi3
 .text          0x9d027068      0x3f0 build/default/production/_ext/1954962658/IP.o
                0x9d027068                IPGetHeader
                0x9d027250                IPPutHeader
                0x9d02737c                IPSetRxBuffer
 .text          0x9d027458      0x3c0 build/default/production/_ext/1954962658/Announce.o
                0x9d027458                AnnounceIP
                0x9d0275d4                DiscoveryTask
 .text          0x9d027818      0x384 build/default/production/_ext/243675038/WFPowerSave.o
                0x9d027818                WFConfigureLowPowerMode
                0x9d0278c0                WF_PsPollEnable
                0x9d02794c                WF_PsPollDisable
                0x9d0279b4                WF_GetPowerSaveState
                0x9d0279e4                WFisPsPollEnabled
                0x9d027a34                WFIsPsPollActive
                0x9d027a58                EnsureWFisAwake
                0x9d027abc                WF_HibernateEnable
 .text          0x9d027b9c      0x358 build/default/production/_ext/1954962658/DNSs.o
                0x9d027b9c                DNSServerTask
 .text          0x9d027ef4      0x338 build/default/production/_ext/1954962658/Tick.o
                0x9d027ef4                TickInit
                0x9d02802c                TickGet
                0x9d028064                TickGetDiv256
                0x9d0280d4                TickGetDiv64K
                0x9d028144                TickConvertToMilliseconds
                0x9d0281ac                _T1Interrupt

.rodata         0x9d02822c      0x2e8
 .rodata        0x9d02822c      0x2e8 build/default/production/_ext/1472/CustomHTTPApp.o
                0x9d028430                HTML_UP_ARROW
                0x9d028434                HTML_DOWN_ARROW

.text           0x9d028514      0xd48
 .text          0x9d028514      0x2e4 build/default/production/_ext/243675038/WF_Eint.o
                0x9d028514                WF_EintIsDisabled
                0x9d028544                WF_EintIsPending
                0x9d02859c                _WFInterrupt
                0x9d0286ec                WF_EintEnable
                0x9d028738                WF_EintDisable
                0x9d028764                WF_EintInit
 .text          0x9d0287f8      0x298 build/default/production/_ext/243675038/WF_Spi.o
                0x9d0287f8                WF_SpiInit
                0x9d0288a4                WF_SpiEnableChipSelect
                0x9d0288d4                WF_SpiDisableChipSelect
                0x9d028914                WFSpiTxRx
 .text          0x9d028a90      0x218 build/default/production/_ext/243675038/WFConnectionManager.o
                0x9d028a90                WF_CMConnect
                0x9d028b08                WF_CMDisconnect
                0x9d028b80                WF_CMGetConnectionState
                0x9d028c58                WFisConnected
                0x9d028c7c                SetLogicalConnectionState
 .text          0x9d028ca8      0x1f4 build/default/production/_ext/243675038/WFTxPower.o
                0x9d028ca8                WF_TxPowerSetMinMax
                0x9d028da0                WF_TxPowerGetMinMax
                0x9d028e48                WF_TxPowerGetFactoryMax
 .text          0x9d028e9c      0x1e0 build/default/production/_ext/243675038/WFConsoleMsgs.o
                0x9d028e9c                ConvertASCIIHexToBinary
                0x9d028fe0                HexToBin
 .text          0x9d02907c      0x1e0 build/default/production/_ext/1472/WF_Config.o
                0x9d02907c                WiFiConnect
                0x9d029150                WF_ProcessEvent
                0x9d029238                WF_AssertionFailed

.text.fwrite    0x9d02925c      0x1cc
 .text.fwrite   0x9d02925c      0x1cc c:/program files (x86)/microchip/mplab c32 suite/bin/../lib/gcc/pic32mx/4.5.1/../../../../pic32mx/lib\libc.a(fwrite.o)
                0x9d02925c                fwrite

.text.fseek     0x9d029428      0x1c0
 .text.fseek    0x9d029428      0x1c0 c:/program files (x86)/microchip/mplab c32 suite/bin/../lib/gcc/pic32mx/4.5.1/../../../../pic32mx/lib\libc.a(fseek.o)
                0x9d029428                fseek

.text           0x9d0295e8      0x708
 .text          0x9d0295e8      0x174 build/default/production/_ext/243675038/WFScan.o
                0x9d0295e8                WF_Scan
                0x9d029660                WF_ScanGetResult
 .text          0x9d02975c      0x16c build/default/production/_ext/1954962658/ICMP.o
                0x9d02975c                ICMPProcess
 .text          0x9d0298c8      0x168 c:/program files (x86)/microchip/mplab c32 suite/bin/../lib/gcc/pic32mx/4.5.1/../../../../pic32mx/lib\libc.a(memcpy.o)
                0x9d0298c8                memcpy
 .text          0x9d029a30      0x168 c:/program files (x86)/microchip/mplab c32 suite/bin/../lib/gcc/pic32mx/4.5.1/../../../../pic32mx/lib\libc.a(strlen.o)
                0x9d029a30                strlen
 .text          0x9d029b98      0x158 build/default/production/_ext/1954962658/Reboot.o
                0x9d029b98                RebootTask

.text.fputc     0x9d029cf0      0x140
 .text.fputc    0x9d029cf0      0x140 c:/program files (x86)/microchip/mplab c32 suite/bin/../lib/gcc/pic32mx/4.5.1/../../../../pic32mx/lib\libc.a(_fputc_simple.o)
                0x9d029cf0                fputc

.text           0x9d029e30      0x12c
 .text          0x9d029e30      0x12c build/default/production/_ext/243675038/WFConsoleMsgHandler.o
                0x9d029e30                convertAsciiToHexInPlace

.text._flsbuf   0x9d029f5c      0x12c
 .text._flsbuf  0x9d029f5c      0x12c c:/program files (x86)/microchip/mplab c32 suite/bin/../lib/gcc/pic32mx/4.5.1/../../../../pic32mx/lib\libc.a(_flsbuf_simple.o)
                0x9d029f5c                _flsbuf

.text           0x9d02a088      0x120
 .text          0x9d02a088      0x120 c:/program files (x86)/microchip/mplab c32 suite/bin/../lib/gcc/pic32mx/4.5.1/../../../../pic32mx/lib\libc.a(strcmp.o)
                0x9d02a088                strcmp

.rodata         0x9d02a1a8      0x104
 .rodata        0x9d02a1a8      0x104 c:/program files (x86)/microchip/mplab c32 suite/bin/../lib/gcc/pic32mx/4.5.1/../../../../pic32mx/lib\libc.a(ctype.o)
                0x9d02a1a8                _ctype

.text           0x9d02a2ac      0x1f0
 .text          0x9d02a2ac      0x100 build/default/production/_ext/243675038/WFInit.o
                0x9d02a2ac                WF_Init
 .text          0x9d02a3ac       0xf0 build/default/production/_ext/1954962658/Delay.o
                0x9d02a3ac                DelayMs
                0x9d02a440                Delay10us

.text.general_exception
                0x9d02a49c       0xd0
 .text.general_exception
                0x9d02a49c       0xd0 c:/program files (x86)/microchip/mplab c32 suite/bin/../lib/gcc/pic32mx/4.5.1/../../../../pic32mx/lib\libc.a(general-exception.o)
                0x9d02a49c                _general_exception_context

.rodata         0x9d02a570      0x198
 .rodata        0x9d02a570       0xd0 c:/program files (x86)/microchip/mplab c32 suite/bin/../lib/gcc/pic32mx/4.5.1/../../../../pic32mx/lib\libc.a(doprnt_cdnopsuxX.eo)
 .rodata        0x9d02a640       0xc8 build/default/production/_ext/1954962658/ZeroconfMulticastDNS.o

.text           0x9d02a708       0xbc
 .text          0x9d02a708       0xbc build/default/production/_ext/1954962658/ZeroconfHelper.o
                0x9d02a708                zgzc_wait_for

.rodata         0x9d02a7c4       0xb8
 .rodata        0x9d02a7c4       0xb8 build/default/production/_ext/243675038/WFConsoleMsgs.o
                0x9d02a7c4                helpCmd
                0x9d02a7cc                helpHelp
                0x9d02a7e0                getwfverCmd
                0x9d02a7ec                getwfverHelp
                0x9d02a808                resetCmd
                0x9d02a810                resetHelp
                0x9d02a820                clsCmd
                0x9d02a824                clsHelp
                0x9d02a834                seeDocHelp
                0x9d02a848                g_consoleCmd
                0x9d02a878                g_numCmds

.text           0x9d02a87c       0xa8
 .text          0x9d02a87c       0xa8 c:/program files (x86)/microchip/mplab c32 suite/bin/../lib/gcc/pic32mx/4.5.1/../../../../pic32mx/lib\libc.a(memset.o)
                0x9d02a87c                memset

.text.atol      0x9d02a924       0xa4
 .text.atol     0x9d02a924       0xa4 c:/program files (x86)/microchip/mplab c32 suite/bin/../lib/gcc/pic32mx/4.5.1/../../../../pic32mx/lib\libc.a(atol.o)
                0x9d02a924                atol

.text           0x9d02a9c8       0x98
 .text          0x9d02a9c8       0x98 c:/program files (x86)/microchip/mplab c32 suite/bin/../lib/gcc/pic32mx/4.5.1/../../../../pic32mx/lib\libc.a(memcmp.o)
                0x9d02a9c8                memcmp

.text.fflush    0x9d02aa60       0x94
 .text.fflush   0x9d02aa60       0x94 c:/program files (x86)/microchip/mplab c32 suite/bin/../lib/gcc/pic32mx/4.5.1/../../../../pic32mx/lib\libc.a(fflush.o)
                0x9d02aa60                fflush

.text.write     0x9d02aaf4       0x88
 .text.write    0x9d02aaf4       0x88 c:/program files (x86)/microchip/mplab c32 suite/bin/../lib/gcc/pic32mx/4.5.1/../../../../pic32mx/lib\libc.a(write.o)
                0x9d02aaf4                write

.text.UARTEnable
                0x9d02ab7c       0x80
 .text.UARTEnable
                0x9d02ab7c       0x80 c:/program files (x86)/microchip/mplab c32 suite/bin/../lib/gcc/pic32mx/4.5.1/../../../../pic32mx/lib\libmchp_peripheral_32MX695F512H.a(uart_lib.o)
                0x9d02ab7c                UARTEnable

.text.fputs     0x9d02abfc       0x78
 .text.fputs    0x9d02abfc       0x78 c:/program files (x86)/microchip/mplab c32 suite/bin/../lib/gcc/pic32mx/4.5.1/../../../../pic32mx/lib\libc.a(puts.o)
                0x9d02abfc                fputs

.text.SoftReset
                0x9d02ac74       0x78
 .text.SoftReset
                0x9d02ac74       0x78 c:/program files (x86)/microchip/mplab c32 suite/bin/../lib/gcc/pic32mx/4.5.1/../../../../pic32mx/lib\libmchp_peripheral_32MX695F512H.a(soft_reset_lib.o)
                0x9d02ac74                SoftReset

.rodata         0x9d02acec       0x74
 .rodata        0x9d02acec       0x74 build/default/production/_ext/1472/MainDemo.o

.text.ftell     0x9d02ad60       0x6c
 .text.ftell    0x9d02ad60       0x6c c:/program files (x86)/microchip/mplab c32 suite/bin/../lib/gcc/pic32mx/4.5.1/../../../../pic32mx/lib\libc.a(fseek.o)
                0x9d02ad60                ftell

.text._sprintf_cdnopsuxX
                0x9d02adcc       0x68
 .text._sprintf_cdnopsuxX
                0x9d02adcc       0x68 c:/program files (x86)/microchip/mplab c32 suite/bin/../lib/gcc/pic32mx/4.5.1/../../../../pic32mx/lib\libc.a(sprintf_cdnopsuxX.eo)
                0x9d02adcc                _sprintf_cdnopsuxX
                0x9d02adcc                _sprintf_cdnopuxX

.text.UARTSetDataRate
                0x9d02ae34       0x5c
 .text.UARTSetDataRate
                0x9d02ae34       0x5c c:/program files (x86)/microchip/mplab c32 suite/bin/../lib/gcc/pic32mx/4.5.1/../../../../pic32mx/lib\libmchp_peripheral_32MX695F512H.a(uart_lib.o)
                0x9d02ae34                UARTSetDataRate

.text.puts      0x9d02ae90       0x44
 .text.puts     0x9d02ae90       0x44 c:/program files (x86)/microchip/mplab c32 suite/bin/../lib/gcc/pic32mx/4.5.1/../../../../pic32mx/lib\libc.a(puts.o)
                0x9d02ae90                puts

.text._printf_cdnopsuxX
                0x9d02aed4       0x40
 .text._printf_cdnopsuxX
                0x9d02aed4       0x40 c:/program files (x86)/microchip/mplab c32 suite/bin/../lib/gcc/pic32mx/4.5.1/../../../../pic32mx/lib\libc.a(printf_cdnopsuxX.eo)
                0x9d02aed4                _printf_cdnopuxX
                0x9d02aed4                _printf_s
                0x9d02aed4                _printf_0
                0x9d02aed4                _printf_cdnopsuxX

.text.UARTGetDataRate
                0x9d02af14       0x40
 .text.UARTGetDataRate
                0x9d02af14       0x40 c:/program files (x86)/microchip/mplab c32 suite/bin/../lib/gcc/pic32mx/4.5.1/../../../../pic32mx/lib\libmchp_peripheral_32MX695F512H.a(uart_lib.o)
                0x9d02af14                UARTGetDataRate

.text.UARTConfigure
                0x9d02af54       0x3c
 .text.UARTConfigure
                0x9d02af54       0x3c c:/program files (x86)/microchip/mplab c32 suite/bin/../lib/gcc/pic32mx/4.5.1/../../../../pic32mx/lib\libmchp_peripheral_32MX695F512H.a(uart_lib.o)
                0x9d02af54                UARTConfigure

.text.UARTSetAddress
                0x9d02af90       0x3c
 .text.UARTSetAddress
                0x9d02af90       0x3c c:/program files (x86)/microchip/mplab c32 suite/bin/../lib/gcc/pic32mx/4.5.1/../../../../pic32mx/lib\libmchp_peripheral_32MX695F512H.a(uart_lib.o)
                0x9d02af90                UARTSetAddress

.text.UARTWatchForAddress
                0x9d02afcc       0x38
 .text.UARTWatchForAddress
                0x9d02afcc       0x38 c:/program files (x86)/microchip/mplab c32 suite/bin/../lib/gcc/pic32mx/4.5.1/../../../../pic32mx/lib\libmchp_peripheral_32MX695F512H.a(uart_lib.o)
                0x9d02afcc                UARTWatchForAddress

.text.INTEnableSystemMultiVectoredInt
                0x9d02b004       0x34
 .text.INTEnableSystemMultiVectoredInt
                0x9d02b004       0x34 c:/program files (x86)/microchip/mplab c32 suite/bin/../lib/gcc/pic32mx/4.5.1/../../../../pic32mx/lib\libmchp_peripheral_32MX695F512H.a(int_enable_mv_int_lib.o)
                0x9d02b004                INTEnableSystemMultiVectoredInt

.text.UARTSetFifoMode
                0x9d02b038       0x28
 .text.UARTSetFifoMode
                0x9d02b038       0x28 c:/program files (x86)/microchip/mplab c32 suite/bin/../lib/gcc/pic32mx/4.5.1/../../../../pic32mx/lib\libmchp_peripheral_32MX695F512H.a(uart_lib.o)
                0x9d02b038                UARTSetFifoMode

.text.UARTSetLineControl
                0x9d02b060       0x28
 .text.UARTSetLineControl
                0x9d02b060       0x28 c:/program files (x86)/microchip/mplab c32 suite/bin/../lib/gcc/pic32mx/4.5.1/../../../../pic32mx/lib\libmchp_peripheral_32MX695F512H.a(uart_lib.o)
                0x9d02b060                UARTSetLineControl

.rodata         0x9d02b088       0x58
 .rodata        0x9d02b088       0x20 build/default/production/_ext/1954962658/ARP.o
 .rodata        0x9d02b0a8       0x1c build/default/production/_ext/1954962658/Announce.o
 .rodata        0x9d02b0c4       0x1c build/default/production/_ext/1472/WF_Config.o

.text.INTRestoreInterrupts
                0x9d02b0e0       0x1c
 .text.INTRestoreInterrupts
                0x9d02b0e0       0x1c c:/program files (x86)/microchip/mplab c32 suite/bin/../lib/gcc/pic32mx/4.5.1/../../../../pic32mx/lib\libmchp_peripheral_32MX695F512H.a(int_restore_interrupts_lib.o)
                0x9d02b0e0                INTRestoreInterrupts

.text           0x9d02b0fc       0x18
 .text          0x9d02b0fc       0x18 c:/program files (x86)/microchip/mplab c32 suite/bin/../lib/gcc/pic32mx/4.5.1/../../../../pic32mx/lib\libc.a(default-nmi-handler.o)
                0x9d02b0fc                _nmi_handler

.text.CheKseg0CacheOff
                0x9d02b114       0x18
 .text.CheKseg0CacheOff
                0x9d02b114       0x18 c:/program files (x86)/microchip/mplab c32 suite/bin/../lib/gcc/pic32mx/4.5.1/../../../../pic32mx/lib\libmchp_peripheral_32MX695F512H.a(pcache.o)
                0x9d02b114                CheKseg0CacheOff

.text.CheKseg0CacheOn
                0x9d02b12c       0x18
 .text.CheKseg0CacheOn
                0x9d02b12c       0x18 c:/program files (x86)/microchip/mplab c32 suite/bin/../lib/gcc/pic32mx/4.5.1/../../../../pic32mx/lib\libmchp_peripheral_32MX695F512H.a(pcache.o)
                0x9d02b12c                CheKseg0CacheOn

.rodata         0x9d02b144       0x2c
 .rodata        0x9d02b144       0x18 c:/program files (x86)/microchip/mplab c32 suite/bin/../lib/gcc/pic32mx/4.5.1/../../../../pic32mx/lib\libmchp_peripheral_32MX695F512H.a(uart_lib.o)
                0x9d02b144                uartReg
 .rodata        0x9d02b15c       0x14 build/default/production/_ext/1954962658/TCP.o
                0x9d02b15c                TCPSocketInitializer

.text           0x9d02b170       0x10
 .text          0x9d02b170       0x10 c:/program files (x86)/microchip/mplab c32 suite/bin/../lib/gcc/pic32mx/4.5.1/../../../../pic32mx/lib/crt0.o
                0x9d02b178                __crt0_exit

.rodata         0x9d02b180       0x10
 .rodata        0x9d02b180       0x10 build/default/production/_ext/1954962658/ZeroconfLinkLocal.o
                0x9d02b180                g_zcll_dhcp_client

.text._bootstrap_exception_handler
                0x9d02b190        0xc
 .text._bootstrap_exception_handler
                0x9d02b190        0xc c:/program files (x86)/microchip/mplab c32 suite/bin/../lib/gcc/pic32mx/4.5.1/../../../../pic32mx/lib\libc.a(default-bootstrap-exception-handler.o)
                0x9d02b190                _bootstrap_exception_handler

.rodata         0x9d02b19c       0x10
 .rodata        0x9d02b19c        0x8 build/default/production/_ext/1954962658/MPFS2.o
 .rodata        0x9d02b1a4        0x8 build/default/production/_ext/243675038/WFInit.o

.text._on_reset
                0x9d02b1ac        0x8
 .text._on_reset
                0x9d02b1ac        0x8 c:/program files (x86)/microchip/mplab c32 suite/bin/../lib/gcc/pic32mx/4.5.1/../../../../pic32mx/lib\libc.a(default-on-reset.o)
                0x9d02b1ac                _on_reset

.text._on_bootstrap
                0x9d02b1b4        0x8
 .text._on_bootstrap
                0x9d02b1b4        0x8 c:/program files (x86)/microchip/mplab c32 suite/bin/../lib/gcc/pic32mx/4.5.1/../../../../pic32mx/lib\libc.a(default-on-bootstrap.o)
                0x9d02b1b4                _on_bootstrap

.text.lseek     0x9d02b1bc        0x8
 .text.lseek    0x9d02b1bc        0x8 c:/program files (x86)/microchip/mplab c32 suite/bin/../lib/gcc/pic32mx/4.5.1/../../../../pic32mx/lib\libc.a(lseek.o)
                0x9d02b1bc                lseek

.text.INTDisableInterrupts
                0x9d02b1c4        0x8
 .text.INTDisableInterrupts
                0x9d02b1c4        0x8 c:/program files (x86)/microchip/mplab c32 suite/bin/../lib/gcc/pic32mx/4.5.1/../../../../pic32mx/lib\libmchp_peripheral_32MX695F512H.a(int_disable_interrupts_lib.o)
                0x9d02b1c4                INTDisableInterrupts

.text.INTEnableInterrupts
                0x9d02b1cc        0x8
 .text.INTEnableInterrupts
                0x9d02b1cc        0x8 c:/program files (x86)/microchip/mplab c32 suite/bin/../lib/gcc/pic32mx/4.5.1/../../../../pic32mx/lib\libmchp_peripheral_32MX695F512H.a(int_enable_interrupts_lib.o)
                0x9d02b1cc                INTEnableInterrupts

.rodata         0x9d02a56c        0x4
 .rodata        0x9d02a56c        0x4 build/default/production/_ext/243675038/WFConsoleMsgHandler.o

.rodata         0x9d02b1d4        0x4
 .rodata        0x9d02b1d4        0x4 build/default/production/_ext/243675038/WFDriverRaw.o

.text%z302      0x00000000        0x0
 .text          0x00000000        0x0 c:/program files (x86)/microchip/mplab c32 suite/bin/../lib/gcc/pic32mx/4.5.1/../../../../pic32mx/lib/./proc/32MX695F512H\processor.o

.text%z303      0x00000000        0x0
 .text          0x00000000        0x0 c:/program files (x86)/microchip/mplab c32 suite/bin/../lib/gcc/pic32mx/4.5.1/../../../../pic32mx/lib\libmchp_peripheral_32MX695F512H.a(int_enable_interrupts_lib.o)

.text%z304      0x00000000        0x0
 .text          0x00000000        0x0 c:/program files (x86)/microchip/mplab c32 suite/bin/../lib/gcc/pic32mx/4.5.1/../../../../pic32mx/lib\libmchp_peripheral_32MX695F512H.a(uart_lib.o)

.text%z305      0x00000000        0x0
 .text          0x00000000        0x0 c:/program files (x86)/microchip/mplab c32 suite/bin/../lib/gcc/pic32mx/4.5.1/../../../../pic32mx/lib\libmchp_peripheral_32MX695F512H.a(int_enable_mv_int_lib.o)

.text%z306      0x00000000        0x0
 .text          0x00000000        0x0 c:/program files (x86)/microchip/mplab c32 suite/bin/../lib/gcc/pic32mx/4.5.1/../../../../pic32mx/lib\libmchp_peripheral_32MX695F512H.a(int_restore_interrupts_lib.o)

.text%z307      0x00000000        0x0
 .text          0x00000000        0x0 c:/program files (x86)/microchip/mplab c32 suite/bin/../lib/gcc/pic32mx/4.5.1/../../../../pic32mx/lib\libmchp_peripheral_32MX695F512H.a(int_disable_interrupts_lib.o)

.text%z308      0x00000000        0x0
 .text          0x00000000        0x0 c:/program files (x86)/microchip/mplab c32 suite/bin/../lib/gcc/pic32mx/4.5.1/../../../../pic32mx/lib\libmchp_peripheral_32MX695F512H.a(pcache.o)

.text%z309      0x00000000        0x0
 .text          0x00000000        0x0 c:/program files (x86)/microchip/mplab c32 suite/bin/../lib/gcc/pic32mx/4.5.1/../../../../pic32mx/lib\libmchp_peripheral_32MX695F512H.a(soft_reset_lib.o)

.text%z310      0x00000000        0x0
 .text          0x00000000        0x0 c:/program files (x86)/microchip/mplab c32 suite/bin/../lib/gcc/pic32mx/4.5.1/../../../../pic32mx/lib\libc.a(_flsbuf_simple.o)

.text%z311      0x00000000        0x0
 .text          0x00000000        0x0 c:/program files (x86)/microchip/mplab c32 suite/bin/../lib/gcc/pic32mx/4.5.1/../../../../pic32mx/lib\libc.a(lseek.o)

.text%z312      0x00000000        0x0
 .text          0x00000000        0x0 c:/program files (x86)/microchip/mplab c32 suite/bin/../lib/gcc/pic32mx/4.5.1/../../../../pic32mx/lib\libc.a(write.o)

.text%z313      0x00000000        0x0
 .text          0x00000000        0x0 c:/program files (x86)/microchip/mplab c32 suite/bin/../lib/gcc/pic32mx/4.5.1/../../../../pic32mx/lib\libc.a(doprnt_cdnopsuxX.eo)

.text%z314      0x00000000        0x0
 .text          0x00000000        0x0 c:/program files (x86)/microchip/mplab c32 suite/bin/../lib/gcc/pic32mx/4.5.1/../../../../pic32mx/lib\libc.a(fseek.o)

.text%z315      0x00000000        0x0
 .text          0x00000000        0x0 c:/program files (x86)/microchip/mplab c32 suite/bin/../lib/gcc/pic32mx/4.5.1/../../../../pic32mx/lib\libc.a(_fputc_simple.o)

.text%z316      0x00000000        0x0
 .text          0x00000000        0x0 c:/program files (x86)/microchip/mplab c32 suite/bin/../lib/gcc/pic32mx/4.5.1/../../../../pic32mx/lib\libc.a(fflush.o)

.text%z317      0x00000000        0x0
 .text          0x00000000        0x0 c:/program files (x86)/microchip/mplab c32 suite/bin/../lib/gcc/pic32mx/4.5.1/../../../../pic32mx/lib\libc.a(default-on-bootstrap.o)

.text%z318      0x00000000        0x0
 .text          0x00000000        0x0 c:/program files (x86)/microchip/mplab c32 suite/bin/../lib/gcc/pic32mx/4.5.1/../../../../pic32mx/lib\libc.a(default-on-reset.o)

.text%z319      0x00000000        0x0
 .text          0x00000000        0x0 c:/program files (x86)/microchip/mplab c32 suite/bin/../lib/gcc/pic32mx/4.5.1/../../../../pic32mx/lib\libc.a(default-bootstrap-exception-handler.o)

.text%z320      0x00000000        0x0
 .text          0x00000000        0x0 c:/program files (x86)/microchip/mplab c32 suite/bin/../lib/gcc/pic32mx/4.5.1/../../../../pic32mx/lib\libc.a(sprintf_cdnopsuxX.eo)

.text%z321      0x00000000        0x0
 .text          0x00000000        0x0 c:/program files (x86)/microchip/mplab c32 suite/bin/../lib/gcc/pic32mx/4.5.1/../../../../pic32mx/lib\libc.a(printf_cdnopsuxX.eo)

.text%z322      0x00000000        0x0
 .text          0x00000000        0x0 c:/program files (x86)/microchip/mplab c32 suite/bin/../lib/gcc/pic32mx/4.5.1/../../../../pic32mx/lib\libc.a(puts.o)

.text%z323      0x00000000        0x0
 .text          0x00000000        0x0 c:/program files (x86)/microchip/mplab c32 suite/bin/../lib/gcc/pic32mx/4.5.1/../../../../pic32mx/lib\libc.a(ctype.o)

.text%z324      0x00000000        0x0
 .text          0x00000000        0x0 c:/program files (x86)/microchip/mplab c32 suite/bin/../lib/gcc/pic32mx/4.5.1/../../../../pic32mx/lib\libc.a(atol.o)

.text%z325      0x00000000        0x0
 .text          0x00000000        0x0 c:/program files (x86)/microchip/mplab c32 suite/bin/../lib/gcc/pic32mx/4.5.1/../../../../pic32mx/lib\libc.a(fwrite.o)

.text%z326      0x00000000        0x0
 .text          0x00000000        0x0 c:/program files (x86)/microchip/mplab c32 suite/bin/../lib/gcc/pic32mx/4.5.1/../../../../pic32mx/lib\libc.a(_iob.o)

.text%z327      0x00000000        0x0
 .text          0x00000000        0x0 c:/program files (x86)/microchip/mplab c32 suite/bin/../lib/gcc/pic32mx/4.5.1/../../../../pic32mx/lib\libc.a(general-exception.o)

.text%z328      0x00000000        0x0
 .text          0x00000000        0x0 build/default/production/_ext/1472/IperfApp.o

.text%z329      0x00000000        0x0
 .text          0x00000000        0x0 build/default/production/_ext/1472/MPFSImg2.o

.text%z330      0x00000000        0x0
 .text          0x00000000        0x0 build/default/production/_ext/243675038/WFConsoleIwpriv.o

.text%z331      0x00000000        0x0
 .text          0x00000000        0x0 build/default/production/_ext/243675038/WFConsoleIwconfig.o

.text%z332      0x00000000        0x0
 .text          0x00000000        0x0 build/default/production/_ext/243675038/WFConsoleIfconfig.o

.text%z333      0x00000000        0x0
 .text          0x00000000        0x0 build/default/production/_ext/243675038/WFConsole.o

.text%z334      0x00000000        0x0
 .text          0x00000000        0x0 build/default/production/_ext/1954962658/UDPPerformanceTest.o

.text%z335      0x00000000        0x0
 .text          0x00000000        0x0 build/default/production/_ext/1954962658/UART2TCPBridge.o

.text%z336      0x00000000        0x0
 .text          0x00000000        0x0 build/default/production/_ext/1954962658/UART.o

.text%z337      0x00000000        0x0
 .text          0x00000000        0x0 build/default/production/_ext/1954962658/Telnet.o

.text%z338      0x00000000        0x0
 .text          0x00000000        0x0 build/default/production/_ext/1954962658/TFTPc.o

.text%z339      0x00000000        0x0
 .text          0x00000000        0x0 build/default/production/_ext/1954962658/TCPPerformanceTest.o

.text%z340      0x00000000        0x0
 .text          0x00000000        0x0 build/default/production/_ext/1954962658/SSL.o

.text%z341      0x00000000        0x0
 .text          0x00000000        0x0 build/default/production/_ext/1954962658/SPIRAM.o

.text%z342      0x00000000        0x0
 .text          0x00000000        0x0 build/default/production/_ext/1954962658/SPIFlash.o

.text%z343      0x00000000        0x0
 .text          0x00000000        0x0 build/default/production/_ext/1954962658/SPIEEPROM.o

.text%z344      0x00000000        0x0
 .text          0x00000000        0x0 build/default/production/_ext/1954962658/SNTP.o

.text%z345      0x00000000        0x0
 .text          0x00000000        0x0 build/default/production/_ext/1954962658/SNMP.o

.text%z346      0x00000000        0x0
 .text          0x00000000        0x0 build/default/production/_ext/1954962658/SMTP.o

.text%z347      0x00000000        0x0
 .text          0x00000000        0x0 build/default/production/_ext/1954962658/Random.o

.text%z348      0x00000000        0x0
 .text          0x00000000        0x0 build/default/production/_ext/1954962658/RSA.o

.text%z349      0x00000000        0x0
 .text          0x00000000        0x0 build/default/production/_ext/1954962658/LCDBlocking.o

.text%z350      0x00000000        0x0
 .text          0x00000000        0x0 build/default/production/_ext/1954962658/Hashes.o

.text%z351      0x00000000        0x0
 .text          0x00000000        0x0 build/default/production/_ext/1954962658/FTP.o

.text%z352      0x00000000        0x0
 .text          0x00000000        0x0 build/default/production/_ext/1954962658/DynDNS.o

.text%z353      0x00000000        0x0
 .text          0x00000000        0x0 build/default/production/_ext/1954962658/DNS.o

.text%z354      0x00000000        0x0
 .text          0x00000000        0x0 build/default/production/_ext/1954962658/BigInt_helper_C32.o

.text%z355      0x00000000        0x0
 .text          0x00000000        0x0 build/default/production/_ext/1954962658/BigInt.o

.text%z356      0x00000000        0x0
 .text          0x00000000        0x0 build/default/production/_ext/1954962658/BerkeleyAPI.o

.text%z357      0x00000000        0x0
 .text          0x00000000        0x0 build/default/production/_ext/1954962658/AutoIP.o

.text%z358      0x00000000        0x0
 .text          0x00000000        0x0 build/default/production/_ext/1954962658/ARCFOUR.o
